	.text
	.def	@feat.00;
	.scl	3;
	.type	0;
	.endef
	.globl	@feat.00
.set @feat.00, 0
	.intel_syntax noprefix
	.file	"6p5oe0ih1duslkglcg39hbcz7"
	.def	_ZN3std2io5error14repr_bitpacked11decode_repr17h086e9aa4288480f4E;
	.scl	3;
	.type	32;
	.endef
	.section	.text,"xr",one_only,_ZN3std2io5error14repr_bitpacked11decode_repr17h086e9aa4288480f4E
	.p2align	4, 0x90
_ZN3std2io5error14repr_bitpacked11decode_repr17h086e9aa4288480f4E:
.Lfunc_begin0:
	.cv_func_id 0
	.cv_file	1 "/rustc/e9e6e2e444c30c23a9c878a88fbc3978c2acad95\\library\\std\\src\\io\\error\\repr_bitpacked.rs" "EFFF4068A13FD46A06DC5382E8047571E1CF9BBACB2836F2A88F92082BB14378" 3
	.cv_loc	0 1 250 0
.seh_proc _ZN3std2io5error14repr_bitpacked11decode_repr17h086e9aa4288480f4E
	.seh_handler __CxxFrameHandler3, @unwind, @except
	push	rbp
	.seh_pushreg rbp
	sub	rsp, 112
	.seh_stackalloc 112
	lea	rbp, [rsp + 112]
	.seh_setframe rbp, 112
	.seh_endprologue
	mov	qword ptr [rbp - 8], -2
	mov	qword ptr [rbp - 64], rdx
	mov	qword ptr [rbp - 56], rcx
	mov	qword ptr [rbp - 48], rcx
.Ltmp6:
	.cv_loc	0 1 254 0
	mov	byte ptr [rbp - 17], 1
.Ltmp7:
	.cv_file	2 "/rustc/e9e6e2e444c30c23a9c878a88fbc3978c2acad95\\library\\core\\src\\ptr\\mut_ptr.rs" "970CD9D03765FA6C8BC4258776CF2DE375169491084D2DA00E29E584EFF17168" 3
	.cv_inline_site_id 1 within 0 inlined_at 1 254 0
	.cv_loc	1 2 217 0
	mov	qword ptr [rbp - 32], rdx
.Ltmp8:
	.cv_loc	0 1 255 0
	mov	rax, qword ptr [rbp - 32]
	and	eax, 3
	mov	qword ptr [rbp - 40], rax
	sub	rax, 3
	ja	.LBB0_1
	mov	rax, qword ptr [rbp - 40]
	lea	rcx, [rip + .LJTI0_0]
	movsxd	rax, dword ptr [rcx + 4*rax]
	add	rax, rcx
.Ltmp9:
	jmp	rax
.LBB0_1:
	.cv_loc	0 1 284 0
.Ltmp4:
	lea	rcx, [rip + __unnamed_1]
	lea	r8, [rip + __unnamed_2]
	mov	edx, 40
	call	_ZN4core9panicking5panic17h98448623be179d24E
.Ltmp5:
	jmp	.LBB0_13
.LBB0_2:
	.cv_loc	0 1 257 0
	mov	rax, qword ptr [rbp - 56]
	mov	rcx, qword ptr [rbp - 32]
	sar	rcx, 32
.Ltmp10:
	.cv_loc	0 1 258 0
	mov	dword ptr [rax + 4], ecx
	mov	byte ptr [rax], 0
.Ltmp11:
	.cv_loc	0 1 287 0
	jmp	.LBB0_6
.LBB0_3:
.Ltmp12:
	.cv_loc	0 1 261 0
	mov	ecx, dword ptr [rbp - 28]
	.cv_loc	0 1 262 0
.Ltmp2:
.Ltmp13:
	call	_ZN3std2io5error14repr_bitpacked14kind_from_prim17h8016c112c561583bE
.Ltmp3:
	mov	byte ptr [rbp - 65], al
	jmp	.LBB0_8
.Ltmp14:
.LBB0_4:
	.cv_loc	0 1 274 0
	mov	rax, qword ptr [rbp - 56]
	mov	rcx, qword ptr [rbp - 64]
	mov	qword ptr [rax + 8], rcx
	mov	byte ptr [rax], 2
.Ltmp15:
	.cv_loc	0 1 287 0
	jmp	.LBB0_6
.LBB0_5:
	.cv_inline_site_id 2 within 0 inlined_at 1 279 0
	.cv_inline_site_id 3 within 2 inlined_at 2 1422 0
	.cv_inline_site_id 4 within 3 inlined_at 2 1403 0
	.cv_loc	4 2 615 0
	mov	rax, qword ptr [rbp - 64]
.Ltmp16:
	dec	rax
	mov	qword ptr [rbp - 16], rax
	mov	rcx, qword ptr [rbp - 16]
.Ltmp17:
	.cv_loc	0 1 280 0
	mov	byte ptr [rbp - 17], 0
.Ltmp0:
	call	_ZN78_$LT$std..io..error..repr_bitpacked..Repr$u20$as$u20$core..ops..drop..Drop$GT$4drop28_$u7b$$u7b$closure$u7d$$u7d$17h51496b149df49910E
.Ltmp1:
	mov	qword ptr [rbp - 80], rax
	jmp	.LBB0_12
.Ltmp18:
.LBB0_6:
	.cv_loc	0 1 287 0
	jmp	.LBB0_11
.LBB0_8:
	.cv_loc	0 1 262 0
	mov	al, byte ptr [rbp - 65]
.Ltmp19:
	mov	byte ptr [rbp - 18], al
.Ltmp20:
	.cv_file	3 "/rustc/e9e6e2e444c30c23a9c878a88fbc3978c2acad95\\library\\core\\src\\option.rs" "B1DD07B2E16D10E84EC248AC75FE0A2C17C7BE974B8B7FB1F4D2768228E8D1EE" 3
	.cv_inline_site_id 5 within 0 inlined_at 1 262 0
	.cv_loc	5 3 1006 0
	cmp	byte ptr [rbp - 18], 41
	sete	al
	test	al, 1
	jne	.LBB0_9
	jmp	.LBB0_10
.LBB0_9:
.Ltmp21:
	.cv_file	4 "/rustc/e9e6e2e444c30c23a9c878a88fbc3978c2acad95\\library\\core\\src\\ub_checks.rs" "D05F09F03A7748F1475B6A5566A3AD8F1D69EC140C3F40CB177C11471673525C" 3
	.cv_inline_site_id 6 within 5 inlined_at 3 1008 0
	.cv_inline_site_id 7 within 6 inlined_at 1 270 0
	.cv_loc	7 4 75 0
	call	_ZN4core4hint21unreachable_unchecked18precondition_check17h2c7b89703be2aef8E
.Ltmp22:
	.cv_loc	5 3 1006 0
	ud2
.LBB0_10:
	.cv_loc	5 3 1007 0
	mov	rax, qword ptr [rbp - 56]
	mov	cl, byte ptr [rbp - 18]
.Ltmp23:
	.cv_loc	0 1 272 0
	mov	byte ptr [rax + 1], cl
	mov	byte ptr [rax], 1
.Ltmp24:
	.cv_loc	0 1 287 0
	jmp	.LBB0_6
.LBB0_11:
	mov	rax, qword ptr [rbp - 48]
	add	rsp, 112
	pop	rbp
	ret
.LBB0_12:
	.cv_loc	0 1 280 0
	mov	rax, qword ptr [rbp - 56]
	mov	rcx, qword ptr [rbp - 80]
.Ltmp25:
	mov	qword ptr [rax + 8], rcx
	mov	byte ptr [rax], 3
.Ltmp26:
	.cv_loc	0 1 287 0
	jmp	.LBB0_11
.LBB0_13:
	ud2
	.seh_handlerdata
	.long	($cppxdata$_ZN3std2io5error14repr_bitpacked11decode_repr17h086e9aa4288480f4E)@IMGREL
	.section	.text,"xr",one_only,_ZN3std2io5error14repr_bitpacked11decode_repr17h086e9aa4288480f4E
	.seh_endproc
	.def	"?dtor$7@?0?_ZN3std2io5error14repr_bitpacked11decode_repr17h086e9aa4288480f4E@4HA";
	.scl	3;
	.type	32;
	.endef
	.p2align	4, 0x90
"?dtor$7@?0?_ZN3std2io5error14repr_bitpacked11decode_repr17h086e9aa4288480f4E@4HA":
.seh_proc "?dtor$7@?0?_ZN3std2io5error14repr_bitpacked11decode_repr17h086e9aa4288480f4E@4HA"
.LBB0_7:
	mov	qword ptr [rsp + 16], rdx
	push	rbp
	.seh_pushreg rbp
	sub	rsp, 32
	.seh_stackalloc 32
	lea	rbp, [rdx + 112]
	.seh_endprologue
	test	byte ptr [rbp - 17], 1
	jne	.LBB0_15
	jmp	.LBB0_14
.LBB0_14:
	.cv_loc	0 1 250 0
	add	rsp, 32
	pop	rbp
	ret
.LBB0_15:
	.cv_loc	0 1 287 0
	jmp	.LBB0_14
.Ltmp27:
.Lfunc_end0:
	.section	.rdata,"dr",associative,_ZN3std2io5error14repr_bitpacked11decode_repr17h086e9aa4288480f4E
	.p2align	2, 0x0
.LJTI0_0:
	.long	.LBB0_4-.LJTI0_0
	.long	.LBB0_5-.LJTI0_0
	.long	.LBB0_2-.LJTI0_0
	.long	.LBB0_3-.LJTI0_0
	.seh_handlerdata
	.section	.text,"xr",one_only,_ZN3std2io5error14repr_bitpacked11decode_repr17h086e9aa4288480f4E
	.seh_endproc
	.section	.xdata,"dr",associative,_ZN3std2io5error14repr_bitpacked11decode_repr17h086e9aa4288480f4E
	.p2align	2, 0x0
$cppxdata$_ZN3std2io5error14repr_bitpacked11decode_repr17h086e9aa4288480f4E:
	.long	429065506
	.long	1
	.long	($stateUnwindMap$_ZN3std2io5error14repr_bitpacked11decode_repr17h086e9aa4288480f4E)@IMGREL
	.long	0
	.long	0
	.long	3
	.long	($ip2state$_ZN3std2io5error14repr_bitpacked11decode_repr17h086e9aa4288480f4E)@IMGREL
	.long	104
	.long	0
	.long	1
$stateUnwindMap$_ZN3std2io5error14repr_bitpacked11decode_repr17h086e9aa4288480f4E:
	.long	-1
	.long	"?dtor$7@?0?_ZN3std2io5error14repr_bitpacked11decode_repr17h086e9aa4288480f4E@4HA"@IMGREL
$ip2state$_ZN3std2io5error14repr_bitpacked11decode_repr17h086e9aa4288480f4E:
	.long	.Lfunc_begin0@IMGREL
	.long	-1
	.long	.Ltmp4@IMGREL+1
	.long	0
	.long	.Ltmp1@IMGREL+1
	.long	-1
	.section	.text,"xr",one_only,_ZN3std2io5error14repr_bitpacked11decode_repr17h086e9aa4288480f4E

	.def	_ZN3std2io5error14repr_bitpacked14kind_from_prim17h8016c112c561583bE;
	.scl	3;
	.type	32;
	.endef
	.section	.text,"xr",one_only,_ZN3std2io5error14repr_bitpacked14kind_from_prim17h8016c112c561583bE
	.p2align	4, 0x90
_ZN3std2io5error14repr_bitpacked14kind_from_prim17h8016c112c561583bE:
.Lfunc_begin1:
	.cv_func_id 8
	.cv_loc	8 1 293 0
.seh_proc _ZN3std2io5error14repr_bitpacked14kind_from_prim17h8016c112c561583bE
	push	rax
	.seh_stackalloc 8
	.seh_endprologue
	mov	dword ptr [rsp], ecx
.Ltmp28:
	.cv_loc	8 1 301 0
	cmp	dword ptr [rsp], 0
	jne	.LBB1_2
.Ltmp29:
	.cv_loc	8 1 301 0
	mov	byte ptr [rsp + 7], 0
.Ltmp30:
	.cv_loc	8 1 301 0
	jmp	.LBB1_3
.LBB1_2:
	cmp	dword ptr [rsp], 1
	je	.LBB1_4
	jmp	.LBB1_5
.LBB1_3:
	.cv_loc	8 1 349 0
	mov	al, byte ptr [rsp + 7]
	pop	rcx
	ret
.LBB1_4:
.Ltmp31:
	.cv_loc	8 1 301 0
	mov	byte ptr [rsp + 7], 1
.Ltmp32:
	.cv_loc	8 1 301 0
	jmp	.LBB1_3
.LBB1_5:
	cmp	dword ptr [rsp], 2
	jne	.LBB1_7
.Ltmp33:
	.cv_loc	8 1 301 0
	mov	byte ptr [rsp + 7], 2
.Ltmp34:
	.cv_loc	8 1 301 0
	jmp	.LBB1_3
.LBB1_7:
	cmp	dword ptr [rsp], 3
	jne	.LBB1_9
.Ltmp35:
	.cv_loc	8 1 301 0
	mov	byte ptr [rsp + 7], 3
.Ltmp36:
	.cv_loc	8 1 301 0
	jmp	.LBB1_3
.LBB1_9:
	cmp	dword ptr [rsp], 4
	jne	.LBB1_11
.Ltmp37:
	.cv_loc	8 1 301 0
	mov	byte ptr [rsp + 7], 4
.Ltmp38:
	.cv_loc	8 1 301 0
	jmp	.LBB1_3
.LBB1_11:
	cmp	dword ptr [rsp], 5
	jne	.LBB1_13
.Ltmp39:
	.cv_loc	8 1 301 0
	mov	byte ptr [rsp + 7], 5
.Ltmp40:
	.cv_loc	8 1 301 0
	jmp	.LBB1_3
.LBB1_13:
	cmp	dword ptr [rsp], 6
	jne	.LBB1_15
.Ltmp41:
	.cv_loc	8 1 301 0
	mov	byte ptr [rsp + 7], 6
.Ltmp42:
	.cv_loc	8 1 301 0
	jmp	.LBB1_3
.LBB1_15:
	cmp	dword ptr [rsp], 7
	jne	.LBB1_17
.Ltmp43:
	.cv_loc	8 1 301 0
	mov	byte ptr [rsp + 7], 7
.Ltmp44:
	.cv_loc	8 1 301 0
	jmp	.LBB1_3
.LBB1_17:
	cmp	dword ptr [rsp], 8
	jne	.LBB1_19
.Ltmp45:
	.cv_loc	8 1 301 0
	mov	byte ptr [rsp + 7], 8
.Ltmp46:
	.cv_loc	8 1 301 0
	jmp	.LBB1_3
.LBB1_19:
	cmp	dword ptr [rsp], 9
	jne	.LBB1_21
.Ltmp47:
	.cv_loc	8 1 301 0
	mov	byte ptr [rsp + 7], 9
.Ltmp48:
	.cv_loc	8 1 301 0
	jmp	.LBB1_3
.LBB1_21:
	cmp	dword ptr [rsp], 10
	jne	.LBB1_23
.Ltmp49:
	.cv_loc	8 1 301 0
	mov	byte ptr [rsp + 7], 10
.Ltmp50:
	.cv_loc	8 1 301 0
	jmp	.LBB1_3
.LBB1_23:
	cmp	dword ptr [rsp], 11
	jne	.LBB1_25
.Ltmp51:
	.cv_loc	8 1 301 0
	mov	byte ptr [rsp + 7], 11
.Ltmp52:
	.cv_loc	8 1 301 0
	jmp	.LBB1_3
.LBB1_25:
	cmp	dword ptr [rsp], 12
	jne	.LBB1_27
.Ltmp53:
	.cv_loc	8 1 301 0
	mov	byte ptr [rsp + 7], 12
.Ltmp54:
	.cv_loc	8 1 301 0
	jmp	.LBB1_3
.LBB1_27:
	cmp	dword ptr [rsp], 13
	jne	.LBB1_29
.Ltmp55:
	.cv_loc	8 1 301 0
	mov	byte ptr [rsp + 7], 13
.Ltmp56:
	.cv_loc	8 1 301 0
	jmp	.LBB1_3
.LBB1_29:
	cmp	dword ptr [rsp], 14
	jne	.LBB1_31
.Ltmp57:
	.cv_loc	8 1 301 0
	mov	byte ptr [rsp + 7], 14
.Ltmp58:
	.cv_loc	8 1 301 0
	jmp	.LBB1_3
.LBB1_31:
	cmp	dword ptr [rsp], 15
	jne	.LBB1_33
.Ltmp59:
	.cv_loc	8 1 301 0
	mov	byte ptr [rsp + 7], 15
.Ltmp60:
	.cv_loc	8 1 301 0
	jmp	.LBB1_3
.LBB1_33:
	cmp	dword ptr [rsp], 16
	jne	.LBB1_35
.Ltmp61:
	.cv_loc	8 1 301 0
	mov	byte ptr [rsp + 7], 16
.Ltmp62:
	.cv_loc	8 1 301 0
	jmp	.LBB1_3
.LBB1_35:
	cmp	dword ptr [rsp], 17
	jne	.LBB1_37
.Ltmp63:
	.cv_loc	8 1 301 0
	mov	byte ptr [rsp + 7], 17
.Ltmp64:
	.cv_loc	8 1 301 0
	jmp	.LBB1_3
.LBB1_37:
	cmp	dword ptr [rsp], 18
	jne	.LBB1_39
.Ltmp65:
	.cv_loc	8 1 301 0
	mov	byte ptr [rsp + 7], 18
.Ltmp66:
	.cv_loc	8 1 301 0
	jmp	.LBB1_3
.LBB1_39:
	cmp	dword ptr [rsp], 19
	jne	.LBB1_41
.Ltmp67:
	.cv_loc	8 1 301 0
	mov	byte ptr [rsp + 7], 19
.Ltmp68:
	.cv_loc	8 1 301 0
	jmp	.LBB1_3
.LBB1_41:
	cmp	dword ptr [rsp], 20
	jne	.LBB1_43
.Ltmp69:
	.cv_loc	8 1 301 0
	mov	byte ptr [rsp + 7], 20
.Ltmp70:
	.cv_loc	8 1 301 0
	jmp	.LBB1_3
.LBB1_43:
	cmp	dword ptr [rsp], 21
	jne	.LBB1_45
.Ltmp71:
	.cv_loc	8 1 301 0
	mov	byte ptr [rsp + 7], 21
.Ltmp72:
	.cv_loc	8 1 301 0
	jmp	.LBB1_3
.LBB1_45:
	cmp	dword ptr [rsp], 22
	jne	.LBB1_47
.Ltmp73:
	.cv_loc	8 1 301 0
	mov	byte ptr [rsp + 7], 22
.Ltmp74:
	.cv_loc	8 1 301 0
	jmp	.LBB1_3
.LBB1_47:
	cmp	dword ptr [rsp], 23
	jne	.LBB1_49
.Ltmp75:
	.cv_loc	8 1 301 0
	mov	byte ptr [rsp + 7], 23
.Ltmp76:
	.cv_loc	8 1 301 0
	jmp	.LBB1_3
.LBB1_49:
	cmp	dword ptr [rsp], 24
	jne	.LBB1_51
.Ltmp77:
	.cv_loc	8 1 301 0
	mov	byte ptr [rsp + 7], 24
.Ltmp78:
	.cv_loc	8 1 301 0
	jmp	.LBB1_3
.LBB1_51:
	cmp	dword ptr [rsp], 25
	jne	.LBB1_53
.Ltmp79:
	.cv_loc	8 1 301 0
	mov	byte ptr [rsp + 7], 25
.Ltmp80:
	.cv_loc	8 1 301 0
	jmp	.LBB1_3
.LBB1_53:
	cmp	dword ptr [rsp], 26
	jne	.LBB1_55
.Ltmp81:
	.cv_loc	8 1 301 0
	mov	byte ptr [rsp + 7], 26
.Ltmp82:
	.cv_loc	8 1 301 0
	jmp	.LBB1_3
.LBB1_55:
	cmp	dword ptr [rsp], 27
	jne	.LBB1_57
.Ltmp83:
	.cv_loc	8 1 301 0
	mov	byte ptr [rsp + 7], 27
.Ltmp84:
	.cv_loc	8 1 301 0
	jmp	.LBB1_3
.LBB1_57:
	cmp	dword ptr [rsp], 28
	jne	.LBB1_59
.Ltmp85:
	.cv_loc	8 1 301 0
	mov	byte ptr [rsp + 7], 28
.Ltmp86:
	.cv_loc	8 1 301 0
	jmp	.LBB1_3
.LBB1_59:
	cmp	dword ptr [rsp], 29
	jne	.LBB1_61
.Ltmp87:
	.cv_loc	8 1 301 0
	mov	byte ptr [rsp + 7], 29
.Ltmp88:
	.cv_loc	8 1 301 0
	jmp	.LBB1_3
.LBB1_61:
	cmp	dword ptr [rsp], 30
	jne	.LBB1_63
.Ltmp89:
	.cv_loc	8 1 301 0
	mov	byte ptr [rsp + 7], 30
.Ltmp90:
	.cv_loc	8 1 301 0
	jmp	.LBB1_3
.LBB1_63:
	cmp	dword ptr [rsp], 31
	jne	.LBB1_65
.Ltmp91:
	.cv_loc	8 1 301 0
	mov	byte ptr [rsp + 7], 31
.Ltmp92:
	.cv_loc	8 1 301 0
	jmp	.LBB1_3
.LBB1_65:
	cmp	dword ptr [rsp], 32
	jne	.LBB1_67
.Ltmp93:
	.cv_loc	8 1 301 0
	mov	byte ptr [rsp + 7], 32
.Ltmp94:
	.cv_loc	8 1 301 0
	jmp	.LBB1_3
.LBB1_67:
	cmp	dword ptr [rsp], 33
	jne	.LBB1_69
.Ltmp95:
	.cv_loc	8 1 301 0
	mov	byte ptr [rsp + 7], 33
.Ltmp96:
	.cv_loc	8 1 301 0
	jmp	.LBB1_3
.LBB1_69:
	cmp	dword ptr [rsp], 34
	jne	.LBB1_71
.Ltmp97:
	.cv_loc	8 1 301 0
	mov	byte ptr [rsp + 7], 34
.Ltmp98:
	.cv_loc	8 1 301 0
	jmp	.LBB1_3
.LBB1_71:
	cmp	dword ptr [rsp], 35
	jne	.LBB1_73
.Ltmp99:
	.cv_loc	8 1 301 0
	mov	byte ptr [rsp + 7], 35
.Ltmp100:
	.cv_loc	8 1 301 0
	jmp	.LBB1_3
.LBB1_73:
	cmp	dword ptr [rsp], 39
	jne	.LBB1_75
.Ltmp101:
	.cv_loc	8 1 301 0
	mov	byte ptr [rsp + 7], 39
.Ltmp102:
	.cv_loc	8 1 301 0
	jmp	.LBB1_3
.LBB1_75:
	cmp	dword ptr [rsp], 37
	jne	.LBB1_77
.Ltmp103:
	.cv_loc	8 1 301 0
	mov	byte ptr [rsp + 7], 37
.Ltmp104:
	.cv_loc	8 1 301 0
	jmp	.LBB1_3
.LBB1_77:
	cmp	dword ptr [rsp], 36
	jne	.LBB1_79
.Ltmp105:
	.cv_loc	8 1 301 0
	mov	byte ptr [rsp + 7], 36
.Ltmp106:
	.cv_loc	8 1 301 0
	jmp	.LBB1_3
.LBB1_79:
	cmp	dword ptr [rsp], 38
	jne	.LBB1_81
.Ltmp107:
	.cv_loc	8 1 301 0
	mov	byte ptr [rsp + 7], 38
.Ltmp108:
	.cv_loc	8 1 301 0
	jmp	.LBB1_3
.LBB1_81:
	cmp	dword ptr [rsp], 40
	jne	.LBB1_83
.Ltmp109:
	.cv_loc	8 1 301 0
	mov	byte ptr [rsp + 7], 40
.Ltmp110:
	.cv_loc	8 1 301 0
	jmp	.LBB1_3
.LBB1_83:
	.cv_loc	8 1 302 0
	mov	byte ptr [rsp + 7], 41
	jmp	.LBB1_3
.Ltmp111:
.Lfunc_end1:
	.seh_endproc

	.def	_ZN3std2rt10lang_start17h437e3e875e5d5fc9E;
	.scl	2;
	.type	32;
	.endef
	.section	.text,"xr",one_only,_ZN3std2rt10lang_start17h437e3e875e5d5fc9E
	.globl	_ZN3std2rt10lang_start17h437e3e875e5d5fc9E
	.p2align	4, 0x90
_ZN3std2rt10lang_start17h437e3e875e5d5fc9E:
.Lfunc_begin2:
	.cv_func_id 9
	.cv_file	5 "/rustc/e9e6e2e444c30c23a9c878a88fbc3978c2acad95\\library\\std\\src\\rt.rs" "12015E18D43B6C0260D4886658EE3A604FBEE57CE49EA0B8E685A997533FF79E" 3
	.cv_loc	9 5 152 0
.seh_proc _ZN3std2rt10lang_start17h437e3e875e5d5fc9E
	sub	rsp, 56
	.seh_stackalloc 56
	.seh_endprologue
	mov	al, r9b
	mov	r9, r8
	mov	r8, rdx
.Ltmp112:
	.cv_loc	9 5 159 0
	mov	qword ptr [rsp + 48], rcx
	.cv_loc	9 5 158 0
	lea	rcx, [rsp + 48]
	lea	rdx, [rip + __unnamed_3]
	mov	byte ptr [rsp + 32], al
	call	_ZN3std2rt19lang_start_internal17hd83ad017e0d7938cE
	mov	qword ptr [rsp + 40], rax
	mov	rax, qword ptr [rsp + 40]
	.cv_loc	9 5 165 0
	add	rsp, 56
	ret
.Ltmp113:
.Lfunc_end2:
	.seh_endproc

	.def	_ZN3std2rt10lang_start28_$u7b$$u7b$closure$u7d$$u7d$17h6b5338a7c0b99f7eE;
	.scl	3;
	.type	32;
	.endef
	.section	.text,"xr",one_only,_ZN3std2rt10lang_start28_$u7b$$u7b$closure$u7d$$u7d$17h6b5338a7c0b99f7eE
	.p2align	4, 0x90
_ZN3std2rt10lang_start28_$u7b$$u7b$closure$u7d$$u7d$17h6b5338a7c0b99f7eE:
.Lfunc_begin3:
	.cv_func_id 10
	.cv_loc	10 5 159 0
.seh_proc _ZN3std2rt10lang_start28_$u7b$$u7b$closure$u7d$$u7d$17h6b5338a7c0b99f7eE
	sub	rsp, 40
	.seh_stackalloc 40
	.seh_endprologue
.Ltmp114:
	mov	rcx, qword ptr [rcx]
	call	_ZN3std3sys9backtrace28__rust_begin_short_backtrace17h5c69e29d0045d86fE
	call	_ZN54_$LT$$LP$$RP$$u20$as$u20$std..process..Termination$GT$6report17hd6df8ac7e0e03824E
	mov	dword ptr [rsp + 36], eax
.Ltmp115:
	.cv_file	6 "/rustc/e9e6e2e444c30c23a9c878a88fbc3978c2acad95\\library\\std\\src\\sys\\pal\\windows\\process.rs" "477DC9885D3CA8B26FBF91E6D6F52B3300B11E68577F69E862B9C3C46D7671B7" 3
	.cv_inline_site_id 11 within 10 inlined_at 5 159 0
	.cv_file	7 "/rustc/e9e6e2e444c30c23a9c878a88fbc3978c2acad95\\library\\std\\src\\process.rs" "9EC7F3313600EE8B3DE0761C0C8516D82274596F5A2E8147F182BF4BCB14C968" 3
	.cv_inline_site_id 12 within 11 inlined_at 7 2068 0
	.cv_loc	12 6 766 0
	mov	eax, dword ptr [rsp + 36]
.Ltmp116:
	.cv_loc	10 5 159 0
	add	rsp, 40
	ret
.Ltmp117:
.Lfunc_end3:
	.seh_endproc

	.def	_ZN3std3sys9backtrace28__rust_begin_short_backtrace17h5c69e29d0045d86fE;
	.scl	3;
	.type	32;
	.endef
	.section	.text,"xr",one_only,_ZN3std3sys9backtrace28__rust_begin_short_backtrace17h5c69e29d0045d86fE
	.p2align	4, 0x90
_ZN3std3sys9backtrace28__rust_begin_short_backtrace17h5c69e29d0045d86fE:
.Lfunc_begin4:
	.cv_func_id 13
	.cv_file	8 "/rustc/e9e6e2e444c30c23a9c878a88fbc3978c2acad95\\library\\std\\src\\sys\\backtrace.rs" "1A03EA94CCA0454BDB71A8C624FEDFE8D857781E73E5EDBB942BA7032F36A6AA" 3
	.cv_loc	13 8 151 0
.seh_proc _ZN3std3sys9backtrace28__rust_begin_short_backtrace17h5c69e29d0045d86fE
	sub	rsp, 40
	.seh_stackalloc 40
	.seh_endprologue
.Ltmp118:
	.cv_loc	13 8 155 0
	call	_ZN4core3ops8function6FnOnce9call_once17ha9b011ae69d63a91E
.Ltmp119:
	.cv_file	9 "/rustc/e9e6e2e444c30c23a9c878a88fbc3978c2acad95\\library\\core\\src\\hint.rs" "C9F11E1866430CF14703A7B77ED3BE74A28307C6096E2966C7F164C4E95416C4" 3
	.cv_inline_site_id 14 within 13 inlined_at 8 158 0
	.cv_loc	14 9 338 0
	#APP
	#NO_APP
.Ltmp120:
	.cv_loc	13 8 161 0
	nop
	add	rsp, 40
	ret
.Ltmp121:
.Lfunc_end4:
	.seh_endproc

	.def	_ZN4core3fmt9Arguments9new_const17h9791121e45ca1befE;
	.scl	3;
	.type	32;
	.endef
	.section	.text,"xr",one_only,_ZN4core3fmt9Arguments9new_const17h9791121e45ca1befE
	.p2align	4, 0x90
_ZN4core3fmt9Arguments9new_const17h9791121e45ca1befE:
.Lfunc_begin5:
	.cv_func_id 15
	.cv_file	10 "/rustc/e9e6e2e444c30c23a9c878a88fbc3978c2acad95\\library\\core\\src\\fmt\\mod.rs" "1281F491BC704815B07747BC3616CBF7275B2A8E297302A77313DA94DEAF2871" 3
	.cv_loc	15 10 341 0
	.cv_loc	15 10 343 0
	mov	rax, rcx
.Ltmp122:
	mov	qword ptr [rcx], rdx
	mov	qword ptr [rcx + 8], 1
	mov	r8, qword ptr [rip + __unnamed_4]
	mov	rdx, qword ptr [rip + __unnamed_4+8]
	mov	qword ptr [rcx + 32], r8
	mov	qword ptr [rcx + 40], rdx
	mov	edx, 8
	mov	qword ptr [rcx + 16], rdx
	mov	qword ptr [rcx + 24], 0
	.cv_loc	15 10 344 0
	ret
.Ltmp123:
.Lfunc_end5:

	.def	_ZN4core3num23_$LT$impl$u20$usize$GT$13unchecked_mul18precondition_check17h7eb4f4231e97c1dfE;
	.scl	3;
	.type	32;
	.endef
	.section	.text,"xr",one_only,_ZN4core3num23_$LT$impl$u20$usize$GT$13unchecked_mul18precondition_check17h7eb4f4231e97c1dfE
	.p2align	4, 0x90
_ZN4core3num23_$LT$impl$u20$usize$GT$13unchecked_mul18precondition_check17h7eb4f4231e97c1dfE:
.Lfunc_begin6:
	.cv_func_id 16
	.cv_loc	16 4 66 0
.seh_proc _ZN4core3num23_$LT$impl$u20$usize$GT$13unchecked_mul18precondition_check17h7eb4f4231e97c1dfE
	sub	rsp, 40
	.seh_stackalloc 40
	.seh_endprologue
	mov	rax, rcx
.Ltmp124:
	.cv_file	11 "/rustc/e9e6e2e444c30c23a9c878a88fbc3978c2acad95\\library\\core\\src\\num\\uint_macros.rs" "3F8A60AF90B0819A69C4640C97AFFB75803472249DA266E6E4BFA29EC3A0B7DF" 3
	.cv_inline_site_id 17 within 16 inlined_at 11 826 0
	.cv_loc	17 11 2295 0
	mul	rdx
	seto	al
.Ltmp125:
	.cv_loc	16 11 826 0
	jo	.LBB6_2
	.cv_loc	16 4 72 0
	add	rsp, 40
	ret
.LBB6_2:
	.cv_loc	16 4 68 0
	lea	rcx, [rip + __unnamed_5]
	mov	edx, 69
	call	_ZN4core9panicking14panic_nounwind17h11d08e774c01f380E
	int3
.Ltmp126:
.Lfunc_end6:
	.seh_endproc

	.def	_ZN4core3ops8function6FnOnce40call_once$u7b$$u7b$vtable.shim$u7d$$u7d$17h57f020d0c84a10cbE;
	.scl	3;
	.type	32;
	.endef
	.section	.text,"xr",one_only,_ZN4core3ops8function6FnOnce40call_once$u7b$$u7b$vtable.shim$u7d$$u7d$17h57f020d0c84a10cbE
	.p2align	4, 0x90
_ZN4core3ops8function6FnOnce40call_once$u7b$$u7b$vtable.shim$u7d$$u7d$17h57f020d0c84a10cbE:
.Lfunc_begin7:
	.cv_func_id 18
	.cv_file	12 "/rustc/e9e6e2e444c30c23a9c878a88fbc3978c2acad95\\library\\core\\src\\ops\\function.rs" "56CE021EFEA9987501544CAA0F9655C530CF8DDA7C72CD71DDE4BB5210DBF612" 3
	.cv_loc	18 12 250 0
.seh_proc _ZN4core3ops8function6FnOnce40call_once$u7b$$u7b$vtable.shim$u7d$$u7d$17h57f020d0c84a10cbE
	sub	rsp, 40
	.seh_stackalloc 40
	.seh_endprologue
.Ltmp127:
	mov	rcx, qword ptr [rcx]
	call	_ZN4core3ops8function6FnOnce9call_once17hcf455ec2266e6b60E
	nop
	add	rsp, 40
	ret
.Ltmp128:
.Lfunc_end7:
	.seh_endproc

	.def	_ZN4core3ops8function6FnOnce9call_once17ha9b011ae69d63a91E;
	.scl	3;
	.type	32;
	.endef
	.section	.text,"xr",one_only,_ZN4core3ops8function6FnOnce9call_once17ha9b011ae69d63a91E
	.p2align	4, 0x90
_ZN4core3ops8function6FnOnce9call_once17ha9b011ae69d63a91E:
.Lfunc_begin8:
	.cv_func_id 19
	.cv_loc	19 12 250 0
.seh_proc _ZN4core3ops8function6FnOnce9call_once17ha9b011ae69d63a91E
	sub	rsp, 40
	.seh_stackalloc 40
	.seh_endprologue
.Ltmp129:
	call	rcx
	nop
	add	rsp, 40
	ret
.Ltmp130:
.Lfunc_end8:
	.seh_endproc

	.def	_ZN4core3ops8function6FnOnce9call_once17hcf455ec2266e6b60E;
	.scl	3;
	.type	32;
	.endef
	.section	.text,"xr",one_only,_ZN4core3ops8function6FnOnce9call_once17hcf455ec2266e6b60E
	.p2align	4, 0x90
_ZN4core3ops8function6FnOnce9call_once17hcf455ec2266e6b60E:
.Lfunc_begin9:
	.cv_func_id 20
	.cv_loc	20 12 250 0
.seh_proc _ZN4core3ops8function6FnOnce9call_once17hcf455ec2266e6b60E
	.seh_handler __CxxFrameHandler3, @unwind, @except
	push	rbp
	.seh_pushreg rbp
	sub	rsp, 64
	.seh_stackalloc 64
	lea	rbp, [rsp + 64]
	.seh_setframe rbp, 64
	.seh_endprologue
	mov	qword ptr [rbp - 8], -2
	mov	qword ptr [rbp - 16], rcx
.Ltmp131:
	lea	rcx, [rbp - 16]
.Ltmp133:
	call	_ZN3std2rt10lang_start28_$u7b$$u7b$closure$u7d$$u7d$17h6b5338a7c0b99f7eE
.Ltmp132:
	mov	dword ptr [rbp - 20], eax
	jmp	.LBB9_2
.LBB9_2:
	mov	eax, dword ptr [rbp - 20]
	add	rsp, 64
	pop	rbp
	ret
	.seh_handlerdata
	.long	($cppxdata$_ZN4core3ops8function6FnOnce9call_once17hcf455ec2266e6b60E)@IMGREL
	.section	.text,"xr",one_only,_ZN4core3ops8function6FnOnce9call_once17hcf455ec2266e6b60E
	.seh_endproc
	.def	"?dtor$1@?0?_ZN4core3ops8function6FnOnce9call_once17hcf455ec2266e6b60E@4HA";
	.scl	3;
	.type	32;
	.endef
	.p2align	4, 0x90
"?dtor$1@?0?_ZN4core3ops8function6FnOnce9call_once17hcf455ec2266e6b60E@4HA":
.seh_proc "?dtor$1@?0?_ZN4core3ops8function6FnOnce9call_once17hcf455ec2266e6b60E@4HA"
.LBB9_1:
	mov	qword ptr [rsp + 16], rdx
	push	rbp
	.seh_pushreg rbp
	sub	rsp, 32
	.seh_stackalloc 32
	lea	rbp, [rdx + 64]
	.seh_endprologue
	add	rsp, 32
	pop	rbp
	ret
.Ltmp134:
.Lfunc_end9:
	.seh_handlerdata
	.section	.text,"xr",one_only,_ZN4core3ops8function6FnOnce9call_once17hcf455ec2266e6b60E
	.seh_endproc
	.section	.xdata,"dr",associative,_ZN4core3ops8function6FnOnce9call_once17hcf455ec2266e6b60E
	.p2align	2, 0x0
$cppxdata$_ZN4core3ops8function6FnOnce9call_once17hcf455ec2266e6b60E:
	.long	429065506
	.long	1
	.long	($stateUnwindMap$_ZN4core3ops8function6FnOnce9call_once17hcf455ec2266e6b60E)@IMGREL
	.long	0
	.long	0
	.long	3
	.long	($ip2state$_ZN4core3ops8function6FnOnce9call_once17hcf455ec2266e6b60E)@IMGREL
	.long	56
	.long	0
	.long	1
$stateUnwindMap$_ZN4core3ops8function6FnOnce9call_once17hcf455ec2266e6b60E:
	.long	-1
	.long	"?dtor$1@?0?_ZN4core3ops8function6FnOnce9call_once17hcf455ec2266e6b60E@4HA"@IMGREL
$ip2state$_ZN4core3ops8function6FnOnce9call_once17hcf455ec2266e6b60E:
	.long	.Lfunc_begin9@IMGREL
	.long	-1
	.long	.Ltmp131@IMGREL+1
	.long	0
	.long	.Ltmp132@IMGREL+1
	.long	-1
	.section	.text,"xr",one_only,_ZN4core3ops8function6FnOnce9call_once17hcf455ec2266e6b60E

	.def	_ZN4core3ptr101drop_in_place$LT$std..io..error..ErrorData$LT$alloc..boxed..Box$LT$std..io..error..Custom$GT$$GT$$GT$17h33a3200c6de2a0b4E;
	.scl	3;
	.type	32;
	.endef
	.section	.text,"xr",one_only,_ZN4core3ptr101drop_in_place$LT$std..io..error..ErrorData$LT$alloc..boxed..Box$LT$std..io..error..Custom$GT$$GT$$GT$17h33a3200c6de2a0b4E
	.p2align	4, 0x90
_ZN4core3ptr101drop_in_place$LT$std..io..error..ErrorData$LT$alloc..boxed..Box$LT$std..io..error..Custom$GT$$GT$$GT$17h33a3200c6de2a0b4E:
.Lfunc_begin10:
	.cv_func_id 21
	.cv_file	13 "/rustc/e9e6e2e444c30c23a9c878a88fbc3978c2acad95\\library\\core\\src\\ptr\\mod.rs" "D0AD7361A898D1CE102AF79900A1F65B32E4077E3A417E8743C7B2D7BBF5DF7D" 3
	.cv_loc	21 13 542 0
.seh_proc _ZN4core3ptr101drop_in_place$LT$std..io..error..ErrorData$LT$alloc..boxed..Box$LT$std..io..error..Custom$GT$$GT$$GT$17h33a3200c6de2a0b4E
	sub	rsp, 40
	.seh_stackalloc 40
	.seh_endprologue
	mov	qword ptr [rsp + 32], rcx
.Ltmp135:
	mov	al, byte ptr [rcx]
	sub	al, 3
	jb	.LBB10_2
	jmp	.LBB10_1
.LBB10_1:
	mov	rcx, qword ptr [rsp + 32]
	add	rcx, 8
	call	_ZN4core3ptr68drop_in_place$LT$alloc..boxed..Box$LT$std..io..error..Custom$GT$$GT$17h06b67488e5255a78E
.LBB10_2:
	nop
	add	rsp, 40
	ret
.Ltmp136:
.Lfunc_end10:
	.seh_endproc

	.def	_ZN4core3ptr118drop_in_place$LT$alloc..boxed..Box$LT$dyn$u20$core..error..Error$u2b$core..marker..Sync$u2b$core..marker..Send$GT$$GT$17hdb323922440b0b55E;
	.scl	3;
	.type	32;
	.endef
	.section	.text,"xr",one_only,_ZN4core3ptr118drop_in_place$LT$alloc..boxed..Box$LT$dyn$u20$core..error..Error$u2b$core..marker..Sync$u2b$core..marker..Send$GT$$GT$17hdb323922440b0b55E
	.p2align	4, 0x90
_ZN4core3ptr118drop_in_place$LT$alloc..boxed..Box$LT$dyn$u20$core..error..Error$u2b$core..marker..Sync$u2b$core..marker..Send$GT$$GT$17hdb323922440b0b55E:
.Lfunc_begin11:
	.cv_func_id 22
	.cv_loc	22 13 542 0
.seh_proc _ZN4core3ptr118drop_in_place$LT$alloc..boxed..Box$LT$dyn$u20$core..error..Error$u2b$core..marker..Sync$u2b$core..marker..Send$GT$$GT$17hdb323922440b0b55E
	.seh_handler __CxxFrameHandler3, @unwind, @except
	push	rbp
	.seh_pushreg rbp
	sub	rsp, 64
	.seh_stackalloc 64
	lea	rbp, [rsp + 64]
	.seh_setframe rbp, 64
	.seh_endprologue
	mov	qword ptr [rbp - 8], -2
	mov	qword ptr [rbp - 32], rcx
.Ltmp139:
	mov	rax, qword ptr [rcx]
	mov	qword ptr [rbp - 24], rax
	mov	rax, qword ptr [rcx + 8]
	mov	rax, qword ptr [rax]
	mov	qword ptr [rbp - 16], rax
	cmp	rax, 0
	je	.LBB11_2
.Ltmp137:
	mov	rax, qword ptr [rbp - 16]
	mov	rcx, qword ptr [rbp - 24]
	call	rax
.Ltmp138:
	jmp	.LBB11_2
.LBB11_2:
	mov	rcx, qword ptr [rbp - 32]
	call	_ZN72_$LT$alloc..boxed..Box$LT$T$C$A$GT$$u20$as$u20$core..ops..drop..Drop$GT$4drop17h3fc0d018149b9431E
	nop
	add	rsp, 64
	pop	rbp
	ret
	.seh_handlerdata
	.long	($cppxdata$_ZN4core3ptr118drop_in_place$LT$alloc..boxed..Box$LT$dyn$u20$core..error..Error$u2b$core..marker..Sync$u2b$core..marker..Send$GT$$GT$17hdb323922440b0b55E)@IMGREL
	.section	.text,"xr",one_only,_ZN4core3ptr118drop_in_place$LT$alloc..boxed..Box$LT$dyn$u20$core..error..Error$u2b$core..marker..Sync$u2b$core..marker..Send$GT$$GT$17hdb323922440b0b55E
	.seh_endproc
	.def	"?dtor$3@?0?_ZN4core3ptr118drop_in_place$LT$alloc..boxed..Box$LT$dyn$u20$core..error..Error$u2b$core..marker..Sync$u2b$core..marker..Send$GT$$GT$17hdb323922440b0b55E@4HA";
	.scl	3;
	.type	32;
	.endef
	.p2align	4, 0x90
"?dtor$3@?0?_ZN4core3ptr118drop_in_place$LT$alloc..boxed..Box$LT$dyn$u20$core..error..Error$u2b$core..marker..Sync$u2b$core..marker..Send$GT$$GT$17hdb323922440b0b55E@4HA":
.seh_proc "?dtor$3@?0?_ZN4core3ptr118drop_in_place$LT$alloc..boxed..Box$LT$dyn$u20$core..error..Error$u2b$core..marker..Sync$u2b$core..marker..Send$GT$$GT$17hdb323922440b0b55E@4HA"
.LBB11_3:
	mov	qword ptr [rsp + 16], rdx
	push	rbp
	.seh_pushreg rbp
	sub	rsp, 32
	.seh_stackalloc 32
	lea	rbp, [rdx + 64]
	.seh_endprologue
	mov	rcx, qword ptr [rbp - 32]
	call	_ZN72_$LT$alloc..boxed..Box$LT$T$C$A$GT$$u20$as$u20$core..ops..drop..Drop$GT$4drop17h3fc0d018149b9431E
	nop
	add	rsp, 32
	pop	rbp
	ret
.Ltmp140:
.Lfunc_end11:
	.seh_handlerdata
	.section	.text,"xr",one_only,_ZN4core3ptr118drop_in_place$LT$alloc..boxed..Box$LT$dyn$u20$core..error..Error$u2b$core..marker..Sync$u2b$core..marker..Send$GT$$GT$17hdb323922440b0b55E
	.seh_endproc
	.section	.xdata,"dr",associative,_ZN4core3ptr118drop_in_place$LT$alloc..boxed..Box$LT$dyn$u20$core..error..Error$u2b$core..marker..Sync$u2b$core..marker..Send$GT$$GT$17hdb323922440b0b55E
	.p2align	2, 0x0
$cppxdata$_ZN4core3ptr118drop_in_place$LT$alloc..boxed..Box$LT$dyn$u20$core..error..Error$u2b$core..marker..Sync$u2b$core..marker..Send$GT$$GT$17hdb323922440b0b55E:
	.long	429065506
	.long	1
	.long	($stateUnwindMap$_ZN4core3ptr118drop_in_place$LT$alloc..boxed..Box$LT$dyn$u20$core..error..Error$u2b$core..marker..Sync$u2b$core..marker..Send$GT$$GT$17hdb323922440b0b55E)@IMGREL
	.long	0
	.long	0
	.long	3
	.long	($ip2state$_ZN4core3ptr118drop_in_place$LT$alloc..boxed..Box$LT$dyn$u20$core..error..Error$u2b$core..marker..Sync$u2b$core..marker..Send$GT$$GT$17hdb323922440b0b55E)@IMGREL
	.long	56
	.long	0
	.long	1
$stateUnwindMap$_ZN4core3ptr118drop_in_place$LT$alloc..boxed..Box$LT$dyn$u20$core..error..Error$u2b$core..marker..Sync$u2b$core..marker..Send$GT$$GT$17hdb323922440b0b55E:
	.long	-1
	.long	"?dtor$3@?0?_ZN4core3ptr118drop_in_place$LT$alloc..boxed..Box$LT$dyn$u20$core..error..Error$u2b$core..marker..Sync$u2b$core..marker..Send$GT$$GT$17hdb323922440b0b55E@4HA"@IMGREL
$ip2state$_ZN4core3ptr118drop_in_place$LT$alloc..boxed..Box$LT$dyn$u20$core..error..Error$u2b$core..marker..Sync$u2b$core..marker..Send$GT$$GT$17hdb323922440b0b55E:
	.long	.Lfunc_begin11@IMGREL
	.long	-1
	.long	.Ltmp137@IMGREL+1
	.long	0
	.long	.Ltmp138@IMGREL+1
	.long	-1
	.section	.text,"xr",one_only,_ZN4core3ptr118drop_in_place$LT$alloc..boxed..Box$LT$dyn$u20$core..error..Error$u2b$core..marker..Sync$u2b$core..marker..Send$GT$$GT$17hdb323922440b0b55E

	.def	_ZN4core3ptr42drop_in_place$LT$alloc..string..String$GT$17h3b601064cce962e2E;
	.scl	3;
	.type	32;
	.endef
	.section	.text,"xr",one_only,_ZN4core3ptr42drop_in_place$LT$alloc..string..String$GT$17h3b601064cce962e2E
	.p2align	4, 0x90
_ZN4core3ptr42drop_in_place$LT$alloc..string..String$GT$17h3b601064cce962e2E:
.Lfunc_begin12:
	.cv_func_id 23
	.cv_loc	23 13 542 0
.seh_proc _ZN4core3ptr42drop_in_place$LT$alloc..string..String$GT$17h3b601064cce962e2E
	sub	rsp, 40
	.seh_stackalloc 40
	.seh_endprologue
.Ltmp141:
	call	_ZN4core3ptr46drop_in_place$LT$alloc..vec..Vec$LT$u8$GT$$GT$17h1d2895a42eba6a8dE
	nop
	add	rsp, 40
	ret
.Ltmp142:
.Lfunc_end12:
	.seh_endproc

	.def	_ZN4core3ptr42drop_in_place$LT$std..io..error..Error$GT$17hfb47334e57d1dc30E;
	.scl	3;
	.type	32;
	.endef
	.section	.text,"xr",one_only,_ZN4core3ptr42drop_in_place$LT$std..io..error..Error$GT$17hfb47334e57d1dc30E
	.p2align	4, 0x90
_ZN4core3ptr42drop_in_place$LT$std..io..error..Error$GT$17hfb47334e57d1dc30E:
.Lfunc_begin13:
	.cv_func_id 24
	.cv_loc	24 13 542 0
.seh_proc _ZN4core3ptr42drop_in_place$LT$std..io..error..Error$GT$17hfb47334e57d1dc30E
	sub	rsp, 40
	.seh_stackalloc 40
	.seh_endprologue
.Ltmp143:
	call	_ZN4core3ptr57drop_in_place$LT$std..io..error..repr_bitpacked..Repr$GT$17h42a9079d749c1cfcE
	nop
	add	rsp, 40
	ret
.Ltmp144:
.Lfunc_end13:
	.seh_endproc

	.def	_ZN4core3ptr43drop_in_place$LT$std..io..error..Custom$GT$17h44dde6c79b605124E;
	.scl	3;
	.type	32;
	.endef
	.section	.text,"xr",one_only,_ZN4core3ptr43drop_in_place$LT$std..io..error..Custom$GT$17h44dde6c79b605124E
	.p2align	4, 0x90
_ZN4core3ptr43drop_in_place$LT$std..io..error..Custom$GT$17h44dde6c79b605124E:
.Lfunc_begin14:
	.cv_func_id 25
	.cv_loc	25 13 542 0
.seh_proc _ZN4core3ptr43drop_in_place$LT$std..io..error..Custom$GT$17h44dde6c79b605124E
	sub	rsp, 40
	.seh_stackalloc 40
	.seh_endprologue
.Ltmp145:
	call	_ZN4core3ptr118drop_in_place$LT$alloc..boxed..Box$LT$dyn$u20$core..error..Error$u2b$core..marker..Sync$u2b$core..marker..Send$GT$$GT$17hdb323922440b0b55E
	nop
	add	rsp, 40
	ret
.Ltmp146:
.Lfunc_end14:
	.seh_endproc

	.def	_ZN4core3ptr46drop_in_place$LT$alloc..vec..Vec$LT$u8$GT$$GT$17h1d2895a42eba6a8dE;
	.scl	3;
	.type	32;
	.endef
	.section	.text,"xr",one_only,_ZN4core3ptr46drop_in_place$LT$alloc..vec..Vec$LT$u8$GT$$GT$17h1d2895a42eba6a8dE
	.p2align	4, 0x90
_ZN4core3ptr46drop_in_place$LT$alloc..vec..Vec$LT$u8$GT$$GT$17h1d2895a42eba6a8dE:
.Lfunc_begin15:
	.cv_func_id 26
	.cv_loc	26 13 542 0
.seh_proc _ZN4core3ptr46drop_in_place$LT$alloc..vec..Vec$LT$u8$GT$$GT$17h1d2895a42eba6a8dE
	.seh_handler __CxxFrameHandler3, @unwind, @except
	push	rbp
	.seh_pushreg rbp
	sub	rsp, 48
	.seh_stackalloc 48
	lea	rbp, [rsp + 48]
	.seh_setframe rbp, 48
	.seh_endprologue
	mov	qword ptr [rbp - 8], -2
	mov	qword ptr [rbp - 16], rcx
.Ltmp147:
.Ltmp149:
	call	_ZN70_$LT$alloc..vec..Vec$LT$T$C$A$GT$$u20$as$u20$core..ops..drop..Drop$GT$4drop17h7db163b6a6b5f698E
.Ltmp148:
	jmp	.LBB15_2
.LBB15_2:
	mov	rcx, qword ptr [rbp - 16]
	call	_ZN4core3ptr53drop_in_place$LT$alloc..raw_vec..RawVec$LT$u8$GT$$GT$17h2f43ec9069e49644E
	nop
	add	rsp, 48
	pop	rbp
	ret
	.seh_handlerdata
	.long	($cppxdata$_ZN4core3ptr46drop_in_place$LT$alloc..vec..Vec$LT$u8$GT$$GT$17h1d2895a42eba6a8dE)@IMGREL
	.section	.text,"xr",one_only,_ZN4core3ptr46drop_in_place$LT$alloc..vec..Vec$LT$u8$GT$$GT$17h1d2895a42eba6a8dE
	.seh_endproc
	.def	"?dtor$1@?0?_ZN4core3ptr46drop_in_place$LT$alloc..vec..Vec$LT$u8$GT$$GT$17h1d2895a42eba6a8dE@4HA";
	.scl	3;
	.type	32;
	.endef
	.p2align	4, 0x90
"?dtor$1@?0?_ZN4core3ptr46drop_in_place$LT$alloc..vec..Vec$LT$u8$GT$$GT$17h1d2895a42eba6a8dE@4HA":
.seh_proc "?dtor$1@?0?_ZN4core3ptr46drop_in_place$LT$alloc..vec..Vec$LT$u8$GT$$GT$17h1d2895a42eba6a8dE@4HA"
.LBB15_1:
	mov	qword ptr [rsp + 16], rdx
	push	rbp
	.seh_pushreg rbp
	sub	rsp, 32
	.seh_stackalloc 32
	lea	rbp, [rdx + 48]
	.seh_endprologue
	mov	rcx, qword ptr [rbp - 16]
	call	_ZN4core3ptr53drop_in_place$LT$alloc..raw_vec..RawVec$LT$u8$GT$$GT$17h2f43ec9069e49644E
	nop
	add	rsp, 32
	pop	rbp
	ret
.Ltmp150:
.Lfunc_end15:
	.seh_handlerdata
	.section	.text,"xr",one_only,_ZN4core3ptr46drop_in_place$LT$alloc..vec..Vec$LT$u8$GT$$GT$17h1d2895a42eba6a8dE
	.seh_endproc
	.section	.xdata,"dr",associative,_ZN4core3ptr46drop_in_place$LT$alloc..vec..Vec$LT$u8$GT$$GT$17h1d2895a42eba6a8dE
	.p2align	2, 0x0
$cppxdata$_ZN4core3ptr46drop_in_place$LT$alloc..vec..Vec$LT$u8$GT$$GT$17h1d2895a42eba6a8dE:
	.long	429065506
	.long	1
	.long	($stateUnwindMap$_ZN4core3ptr46drop_in_place$LT$alloc..vec..Vec$LT$u8$GT$$GT$17h1d2895a42eba6a8dE)@IMGREL
	.long	0
	.long	0
	.long	3
	.long	($ip2state$_ZN4core3ptr46drop_in_place$LT$alloc..vec..Vec$LT$u8$GT$$GT$17h1d2895a42eba6a8dE)@IMGREL
	.long	40
	.long	0
	.long	1
$stateUnwindMap$_ZN4core3ptr46drop_in_place$LT$alloc..vec..Vec$LT$u8$GT$$GT$17h1d2895a42eba6a8dE:
	.long	-1
	.long	"?dtor$1@?0?_ZN4core3ptr46drop_in_place$LT$alloc..vec..Vec$LT$u8$GT$$GT$17h1d2895a42eba6a8dE@4HA"@IMGREL
$ip2state$_ZN4core3ptr46drop_in_place$LT$alloc..vec..Vec$LT$u8$GT$$GT$17h1d2895a42eba6a8dE:
	.long	.Lfunc_begin15@IMGREL
	.long	-1
	.long	.Ltmp147@IMGREL+1
	.long	0
	.long	.Ltmp148@IMGREL+1
	.long	-1
	.section	.text,"xr",one_only,_ZN4core3ptr46drop_in_place$LT$alloc..vec..Vec$LT$u8$GT$$GT$17h1d2895a42eba6a8dE

	.def	_ZN4core3ptr53drop_in_place$LT$alloc..raw_vec..RawVec$LT$u8$GT$$GT$17h2f43ec9069e49644E;
	.scl	3;
	.type	32;
	.endef
	.section	.text,"xr",one_only,_ZN4core3ptr53drop_in_place$LT$alloc..raw_vec..RawVec$LT$u8$GT$$GT$17h2f43ec9069e49644E
	.p2align	4, 0x90
_ZN4core3ptr53drop_in_place$LT$alloc..raw_vec..RawVec$LT$u8$GT$$GT$17h2f43ec9069e49644E:
.Lfunc_begin16:
	.cv_func_id 27
	.cv_loc	27 13 542 0
.seh_proc _ZN4core3ptr53drop_in_place$LT$alloc..raw_vec..RawVec$LT$u8$GT$$GT$17h2f43ec9069e49644E
	sub	rsp, 40
	.seh_stackalloc 40
	.seh_endprologue
.Ltmp151:
	call	_ZN77_$LT$alloc..raw_vec..RawVec$LT$T$C$A$GT$$u20$as$u20$core..ops..drop..Drop$GT$4drop17h1217420d382789afE
	nop
	add	rsp, 40
	ret
.Ltmp152:
.Lfunc_end16:
	.seh_endproc

	.def	_ZN4core3ptr57drop_in_place$LT$std..io..error..repr_bitpacked..Repr$GT$17h42a9079d749c1cfcE;
	.scl	3;
	.type	32;
	.endef
	.section	.text,"xr",one_only,_ZN4core3ptr57drop_in_place$LT$std..io..error..repr_bitpacked..Repr$GT$17h42a9079d749c1cfcE
	.p2align	4, 0x90
_ZN4core3ptr57drop_in_place$LT$std..io..error..repr_bitpacked..Repr$GT$17h42a9079d749c1cfcE:
.Lfunc_begin17:
	.cv_func_id 28
	.cv_loc	28 13 542 0
.seh_proc _ZN4core3ptr57drop_in_place$LT$std..io..error..repr_bitpacked..Repr$GT$17h42a9079d749c1cfcE
	sub	rsp, 40
	.seh_stackalloc 40
	.seh_endprologue
.Ltmp153:
	call	_ZN78_$LT$std..io..error..repr_bitpacked..Repr$u20$as$u20$core..ops..drop..Drop$GT$4drop17h00d4287f763ff346E
	nop
	add	rsp, 40
	ret
.Ltmp154:
.Lfunc_end17:
	.seh_endproc

	.def	_ZN4core3ptr68drop_in_place$LT$alloc..boxed..Box$LT$std..io..error..Custom$GT$$GT$17h06b67488e5255a78E;
	.scl	3;
	.type	32;
	.endef
	.section	.text,"xr",one_only,_ZN4core3ptr68drop_in_place$LT$alloc..boxed..Box$LT$std..io..error..Custom$GT$$GT$17h06b67488e5255a78E
	.p2align	4, 0x90
_ZN4core3ptr68drop_in_place$LT$alloc..boxed..Box$LT$std..io..error..Custom$GT$$GT$17h06b67488e5255a78E:
.Lfunc_begin18:
	.cv_func_id 29
	.cv_loc	29 13 542 0
.seh_proc _ZN4core3ptr68drop_in_place$LT$alloc..boxed..Box$LT$std..io..error..Custom$GT$$GT$17h06b67488e5255a78E
	.seh_handler __CxxFrameHandler3, @unwind, @except
	push	rbp
	.seh_pushreg rbp
	sub	rsp, 48
	.seh_stackalloc 48
	lea	rbp, [rsp + 48]
	.seh_setframe rbp, 48
	.seh_endprologue
	mov	qword ptr [rbp - 8], -2
	mov	qword ptr [rbp - 16], rcx
.Ltmp157:
	mov	rcx, qword ptr [rcx]
.Ltmp155:
	call	_ZN4core3ptr43drop_in_place$LT$std..io..error..Custom$GT$17h44dde6c79b605124E
.Ltmp156:
	jmp	.LBB18_2
.LBB18_2:
	mov	rcx, qword ptr [rbp - 16]
	call	_ZN72_$LT$alloc..boxed..Box$LT$T$C$A$GT$$u20$as$u20$core..ops..drop..Drop$GT$4drop17h5d753bba12f06960E
	nop
	add	rsp, 48
	pop	rbp
	ret
	.seh_handlerdata
	.long	($cppxdata$_ZN4core3ptr68drop_in_place$LT$alloc..boxed..Box$LT$std..io..error..Custom$GT$$GT$17h06b67488e5255a78E)@IMGREL
	.section	.text,"xr",one_only,_ZN4core3ptr68drop_in_place$LT$alloc..boxed..Box$LT$std..io..error..Custom$GT$$GT$17h06b67488e5255a78E
	.seh_endproc
	.def	"?dtor$1@?0?_ZN4core3ptr68drop_in_place$LT$alloc..boxed..Box$LT$std..io..error..Custom$GT$$GT$17h06b67488e5255a78E@4HA";
	.scl	3;
	.type	32;
	.endef
	.p2align	4, 0x90
"?dtor$1@?0?_ZN4core3ptr68drop_in_place$LT$alloc..boxed..Box$LT$std..io..error..Custom$GT$$GT$17h06b67488e5255a78E@4HA":
.seh_proc "?dtor$1@?0?_ZN4core3ptr68drop_in_place$LT$alloc..boxed..Box$LT$std..io..error..Custom$GT$$GT$17h06b67488e5255a78E@4HA"
.LBB18_1:
	mov	qword ptr [rsp + 16], rdx
	push	rbp
	.seh_pushreg rbp
	sub	rsp, 32
	.seh_stackalloc 32
	lea	rbp, [rdx + 48]
	.seh_endprologue
	mov	rcx, qword ptr [rbp - 16]
	call	_ZN72_$LT$alloc..boxed..Box$LT$T$C$A$GT$$u20$as$u20$core..ops..drop..Drop$GT$4drop17h5d753bba12f06960E
	nop
	add	rsp, 32
	pop	rbp
	ret
.Ltmp158:
.Lfunc_end18:
	.seh_handlerdata
	.section	.text,"xr",one_only,_ZN4core3ptr68drop_in_place$LT$alloc..boxed..Box$LT$std..io..error..Custom$GT$$GT$17h06b67488e5255a78E
	.seh_endproc
	.section	.xdata,"dr",associative,_ZN4core3ptr68drop_in_place$LT$alloc..boxed..Box$LT$std..io..error..Custom$GT$$GT$17h06b67488e5255a78E
	.p2align	2, 0x0
$cppxdata$_ZN4core3ptr68drop_in_place$LT$alloc..boxed..Box$LT$std..io..error..Custom$GT$$GT$17h06b67488e5255a78E:
	.long	429065506
	.long	1
	.long	($stateUnwindMap$_ZN4core3ptr68drop_in_place$LT$alloc..boxed..Box$LT$std..io..error..Custom$GT$$GT$17h06b67488e5255a78E)@IMGREL
	.long	0
	.long	0
	.long	3
	.long	($ip2state$_ZN4core3ptr68drop_in_place$LT$alloc..boxed..Box$LT$std..io..error..Custom$GT$$GT$17h06b67488e5255a78E)@IMGREL
	.long	40
	.long	0
	.long	1
$stateUnwindMap$_ZN4core3ptr68drop_in_place$LT$alloc..boxed..Box$LT$std..io..error..Custom$GT$$GT$17h06b67488e5255a78E:
	.long	-1
	.long	"?dtor$1@?0?_ZN4core3ptr68drop_in_place$LT$alloc..boxed..Box$LT$std..io..error..Custom$GT$$GT$17h06b67488e5255a78E@4HA"@IMGREL
$ip2state$_ZN4core3ptr68drop_in_place$LT$alloc..boxed..Box$LT$std..io..error..Custom$GT$$GT$17h06b67488e5255a78E:
	.long	.Lfunc_begin18@IMGREL
	.long	-1
	.long	.Ltmp155@IMGREL+1
	.long	0
	.long	.Ltmp156@IMGREL+1
	.long	-1
	.section	.text,"xr",one_only,_ZN4core3ptr68drop_in_place$LT$alloc..boxed..Box$LT$std..io..error..Custom$GT$$GT$17h06b67488e5255a78E

	.def	_ZN4core3ptr85drop_in_place$LT$std..rt..lang_start$LT$$LP$$RP$$GT$..$u7b$$u7b$closure$u7d$$u7d$$GT$17hac4f1caba4769901E;
	.scl	3;
	.type	32;
	.endef
	.section	.text,"xr",one_only,_ZN4core3ptr85drop_in_place$LT$std..rt..lang_start$LT$$LP$$RP$$GT$..$u7b$$u7b$closure$u7d$$u7d$$GT$17hac4f1caba4769901E
	.p2align	4, 0x90
_ZN4core3ptr85drop_in_place$LT$std..rt..lang_start$LT$$LP$$RP$$GT$..$u7b$$u7b$closure$u7d$$u7d$$GT$17hac4f1caba4769901E:
.Lfunc_begin19:
	.cv_func_id 30
	.cv_loc	30 13 542 0
	ret
.Ltmp159:
.Lfunc_end19:

	.def	_ZN4core3ptr8non_null16NonNull$LT$T$GT$13new_unchecked18precondition_check17h18d80fd42b6166fcE;
	.scl	3;
	.type	32;
	.endef
	.section	.text,"xr",one_only,_ZN4core3ptr8non_null16NonNull$LT$T$GT$13new_unchecked18precondition_check17h18d80fd42b6166fcE
	.p2align	4, 0x90
_ZN4core3ptr8non_null16NonNull$LT$T$GT$13new_unchecked18precondition_check17h18d80fd42b6166fcE:
.Lfunc_begin20:
	.cv_func_id 31
	.cv_loc	31 4 66 0
.seh_proc _ZN4core3ptr8non_null16NonNull$LT$T$GT$13new_unchecked18precondition_check17h18d80fd42b6166fcE
	sub	rsp, 40
	.seh_stackalloc 40
	.seh_endprologue
.Ltmp160:
	.cv_file	14 "/rustc/e9e6e2e444c30c23a9c878a88fbc3978c2acad95\\library\\core\\src\\ptr\\non_null.rs" "081A152A998B8D3528438028B0B9713BDF1658511AE4970A506DA46D1D89413E" 3
	.cv_loc	31 14 223 0
	cmp	rcx, 0
	jne	.LBB20_2
	.cv_loc	31 4 68 0
	lea	rcx, [rip + __unnamed_6]
	mov	edx, 93
	call	_ZN4core9panicking14panic_nounwind17h11d08e774c01f380E
.LBB20_2:
	.cv_loc	31 4 72 0
	nop
	add	rsp, 40
	ret
.Ltmp161:
.Lfunc_end20:
	.seh_endproc

	.def	_ZN4core3ptr93drop_in_place$LT$dyn$u20$core..error..Error$u2b$core..marker..Sync$u2b$core..marker..Send$GT$17h0fbd872f4cd8179dE;
	.scl	3;
	.type	32;
	.endef
	.section	.text,"xr",one_only,_ZN4core3ptr93drop_in_place$LT$dyn$u20$core..error..Error$u2b$core..marker..Sync$u2b$core..marker..Send$GT$17h0fbd872f4cd8179dE
	.p2align	4, 0x90
_ZN4core3ptr93drop_in_place$LT$dyn$u20$core..error..Error$u2b$core..marker..Sync$u2b$core..marker..Send$GT$17h0fbd872f4cd8179dE:
.Lfunc_begin21:
	.cv_func_id 32
	.cv_loc	32 13 542 0
.seh_proc _ZN4core3ptr93drop_in_place$LT$dyn$u20$core..error..Error$u2b$core..marker..Sync$u2b$core..marker..Send$GT$17h0fbd872f4cd8179dE
	sub	rsp, 56
	.seh_stackalloc 56
	.seh_endprologue
	mov	qword ptr [rsp + 40], rcx
.Ltmp162:
	mov	rax, qword ptr [rdx]
	mov	qword ptr [rsp + 48], rax
	cmp	rax, 0
	je	.LBB21_2
	mov	rax, qword ptr [rsp + 48]
	mov	rcx, qword ptr [rsp + 40]
	call	rax
.LBB21_2:
	nop
	add	rsp, 56
	ret
.Ltmp163:
.Lfunc_end21:
	.seh_endproc

	.def	_ZN4core3str11validations15next_code_point17h6704861cdae586f9E;
	.scl	3;
	.type	32;
	.endef
	.section	.text,"xr",one_only,_ZN4core3str11validations15next_code_point17h6704861cdae586f9E
	.p2align	4, 0x90
_ZN4core3str11validations15next_code_point17h6704861cdae586f9E:
.Lfunc_begin22:
	.cv_func_id 33
	.cv_file	15 "/rustc/e9e6e2e444c30c23a9c878a88fbc3978c2acad95\\library\\core\\src\\str\\validations.rs" "38A7C3F0A7F95FA9D6FFD2D7DAB5F816818600A959A99C60F0588BFDB149223E" 3
	.cv_loc	33 15 36 0
.seh_proc _ZN4core3str11validations15next_code_point17h6704861cdae586f9E
	sub	rsp, 120
	.seh_stackalloc 120
	.seh_endprologue
	mov	qword ptr [rsp + 56], rcx
.Ltmp164:
	.cv_loc	33 15 38 0
	call	_ZN91_$LT$core..slice..iter..Iter$LT$T$GT$$u20$as$u20$core..iter..traits..iterator..Iterator$GT$4next17h414b5bfc759975bbE
	mov	qword ptr [rsp + 80], rax
.Ltmp165:
	.cv_inline_site_id 34 within 33 inlined_at 15 38 0
	.cv_loc	34 3 2483 0
	mov	rdx, qword ptr [rsp + 80]
	mov	eax, 1
	xor	ecx, ecx
	cmp	rdx, 0
	cmove	rax, rcx
	cmp	rax, 0
	jne	.LBB22_2
.Ltmp166:
	.cv_inline_site_id 35 within 33 inlined_at 15 38 0
	.cv_loc	35 3 2495 0
	mov	ecx, dword ptr [rip + __unnamed_7]
	mov	eax, dword ptr [rip + __unnamed_7+4]
	mov	dword ptr [rsp + 64], ecx
	mov	dword ptr [rsp + 68], eax
.Ltmp167:
	.cv_file	16 "C:\\Users\\kade\\code\\iferoo\\src\\main.rs" "E6A606B7083FB7B451B74B2F4A58CDE291EC450B35F0FF57B86C6F18E94F4853" 3
	.cv_loc	33 16 1 0
	jmp	.LBB22_3
.LBB22_2:
.Ltmp168:
	.cv_loc	34 3 2484 0
	mov	rax, qword ptr [rsp + 80]
.Ltmp169:
	.cv_loc	34 3 2484 0
	mov	qword ptr [rsp + 72], rax
.Ltmp170:
	.cv_loc	33 15 38 0
	mov	rax, qword ptr [rsp + 72]
	mov	al, byte ptr [rax]
	mov	byte ptr [rsp + 55], al
.Ltmp171:
	.cv_loc	33 15 39 0
	cmp	al, -128
	jb	.LBB22_5
	jmp	.LBB22_4
.Ltmp172:
.LBB22_3:
	.cv_loc	33 15 70 0
	mov	eax, dword ptr [rsp + 64]
	mov	edx, dword ptr [rsp + 68]
	add	rsp, 120
	ret
.LBB22_4:
	.cv_inline_site_id 36 within 33 inlined_at 15 46 0
	.cv_loc	36 15 12 0
	mov	rcx, qword ptr [rsp + 56]
	mov	al, byte ptr [rsp + 55]
.Ltmp173:
	and	al, 31
	movzx	eax, al
	mov	dword ptr [rsp + 48], eax
.Ltmp174:
	.cv_loc	33 15 49 0
	call	_ZN91_$LT$core..slice..iter..Iter$LT$T$GT$$u20$as$u20$core..iter..traits..iterator..Iterator$GT$4next17h414b5bfc759975bbE
	mov	qword ptr [rsp + 88], rax
.Ltmp175:
	.cv_inline_site_id 37 within 33 inlined_at 15 49 0
	.cv_loc	37 3 1068 0
	mov	rdx, qword ptr [rsp + 88]
	mov	eax, 1
	xor	ecx, ecx
	cmp	rdx, 0
	cmove	rax, rcx
	cmp	rax, 0
	je	.LBB22_6
	jmp	.LBB22_7
.Ltmp176:
.LBB22_5:
	.cv_loc	33 15 40 0
	mov	al, byte ptr [rsp + 55]
	movzx	eax, al
	mov	dword ptr [rsp + 68], eax
	mov	dword ptr [rsp + 64], 1
	.cv_loc	33 16 1 0
	jmp	.LBB22_3
.LBB22_6:
.Ltmp177:
	.cv_inline_site_id 38 within 37 inlined_at 3 1071 0
	.cv_loc	38 4 75 0
	call	_ZN4core4hint21unreachable_unchecked18precondition_check17h2c7b89703be2aef8E
	jmp	.LBB22_8
.Ltmp178:
.LBB22_7:
	.cv_loc	37 3 1069 0
	mov	al, byte ptr [rsp + 55]
	mov	ecx, dword ptr [rsp + 48]
	mov	rdx, qword ptr [rsp + 88]
.Ltmp179:
	.cv_loc	33 15 49 0
	mov	dl, byte ptr [rdx]
.Ltmp180:
	.cv_inline_site_id 39 within 33 inlined_at 15 50 0
	.cv_loc	39 15 18 0
	shl	ecx, 6
	and	dl, 63
	movzx	edx, dl
	mov	dword ptr [rsp + 44], edx
	or	ecx, edx
	mov	dword ptr [rsp + 100], ecx
.Ltmp181:
	.cv_loc	33 15 51 0
	cmp	al, -32
	jae	.LBB22_10
	jmp	.LBB22_9
.Ltmp182:
.LBB22_8:
	.cv_loc	33 15 38 0
	ud2
.LBB22_9:
.Ltmp183:
	.cv_loc	33 15 69 0
	mov	eax, dword ptr [rsp + 100]
	mov	dword ptr [rsp + 68], eax
	mov	dword ptr [rsp + 64], 1
.Ltmp184:
	.cv_loc	33 15 70 0
	jmp	.LBB22_3
.LBB22_10:
	.cv_loc	33 15 56 0
	mov	rcx, qword ptr [rsp + 56]
.Ltmp185:
	call	_ZN91_$LT$core..slice..iter..Iter$LT$T$GT$$u20$as$u20$core..iter..traits..iterator..Iterator$GT$4next17h414b5bfc759975bbE
	mov	qword ptr [rsp + 104], rax
.Ltmp186:
	.cv_inline_site_id 40 within 33 inlined_at 15 56 0
	.cv_loc	40 3 1068 0
	mov	rdx, qword ptr [rsp + 104]
	mov	eax, 1
	xor	ecx, ecx
	cmp	rdx, 0
	cmove	rax, rcx
	cmp	rax, 0
	jne	.LBB22_12
.Ltmp187:
	.cv_inline_site_id 41 within 40 inlined_at 3 1071 0
	.cv_loc	41 4 75 0
	call	_ZN4core4hint21unreachable_unchecked18precondition_check17h2c7b89703be2aef8E
	jmp	.LBB22_8
.Ltmp188:
.LBB22_12:
	.cv_loc	40 3 1069 0
	mov	al, byte ptr [rsp + 55]
	mov	ecx, dword ptr [rsp + 48]
	mov	edx, dword ptr [rsp + 44]
	mov	r8, qword ptr [rsp + 104]
.Ltmp189:
	.cv_loc	33 15 56 0
	mov	r8b, byte ptr [r8]
.Ltmp190:
	.cv_inline_site_id 42 within 33 inlined_at 15 57 0
	.cv_loc	42 15 18 0
	shl	edx, 6
	and	r8b, 63
	movzx	r8d, r8b
	or	edx, r8d
	mov	dword ptr [rsp + 40], edx
.Ltmp191:
	.cv_loc	33 15 58 0
	shl	ecx, 12
	or	ecx, edx
	mov	dword ptr [rsp + 100], ecx
	.cv_loc	33 15 59 0
	cmp	al, -16
	jae	.LBB22_14
.Ltmp192:
.LBB22_13:
	.cv_loc	33 15 51 0
	jmp	.LBB22_9
.LBB22_14:
	.cv_loc	33 15 64 0
	mov	rcx, qword ptr [rsp + 56]
.Ltmp193:
	call	_ZN91_$LT$core..slice..iter..Iter$LT$T$GT$$u20$as$u20$core..iter..traits..iterator..Iterator$GT$4next17h414b5bfc759975bbE
	mov	qword ptr [rsp + 112], rax
.Ltmp194:
	.cv_inline_site_id 43 within 33 inlined_at 15 64 0
	.cv_loc	43 3 1068 0
	mov	rdx, qword ptr [rsp + 112]
	mov	eax, 1
	xor	ecx, ecx
	cmp	rdx, 0
	cmove	rax, rcx
	cmp	rax, 0
	jne	.LBB22_16
.Ltmp195:
	.cv_inline_site_id 44 within 43 inlined_at 3 1071 0
	.cv_loc	44 4 75 0
	call	_ZN4core4hint21unreachable_unchecked18precondition_check17h2c7b89703be2aef8E
	jmp	.LBB22_8
.Ltmp196:
.LBB22_16:
	.cv_loc	43 3 1069 0
	mov	ecx, dword ptr [rsp + 40]
	mov	eax, dword ptr [rsp + 48]
	mov	rdx, qword ptr [rsp + 112]
.Ltmp197:
	.cv_loc	33 15 64 0
	mov	dl, byte ptr [rdx]
.Ltmp198:
	.cv_loc	33 15 65 0
	and	eax, 7
	shl	eax, 18
.Ltmp199:
	.cv_inline_site_id 45 within 33 inlined_at 15 65 0
	.cv_loc	45 15 18 0
	shl	ecx, 6
	and	dl, 63
	movzx	edx, dl
	or	ecx, edx
.Ltmp200:
	.cv_loc	33 15 65 0
	or	eax, ecx
	mov	dword ptr [rsp + 100], eax
.Ltmp201:
	.cv_loc	33 15 59 0
	jmp	.LBB22_13
.Ltmp202:
.Lfunc_end22:
	.seh_endproc

	.def	_ZN4core3str21_$LT$impl$u20$str$GT$5chars17h567eb88f4ce0d003E;
	.scl	3;
	.type	32;
	.endef
	.section	.text,"xr",one_only,_ZN4core3str21_$LT$impl$u20$str$GT$5chars17h567eb88f4ce0d003E
	.p2align	4, 0x90
_ZN4core3str21_$LT$impl$u20$str$GT$5chars17h567eb88f4ce0d003E:
.Lfunc_begin23:
	.cv_func_id 46
	.cv_file	17 "/rustc/e9e6e2e444c30c23a9c878a88fbc3978c2acad95\\library\\core\\src\\str\\mod.rs" "2566DF37E2D57677310012CB8E3EC3E5DC14DA56B6DB77B0E49B0B51D7DE1E46" 3
	.cv_loc	46 17 853 0
.seh_proc _ZN4core3str21_$LT$impl$u20$str$GT$5chars17h567eb88f4ce0d003E
	push	rax
	.seh_stackalloc 8
	.seh_endprologue
	mov	qword ptr [rsp], rdx
	mov	rax, rcx
	mov	rcx, qword ptr [rsp]
.Ltmp203:
	.cv_inline_site_id 47 within 46 inlined_at 17 854 0
	.cv_file	18 "/rustc/e9e6e2e444c30c23a9c878a88fbc3978c2acad95\\library\\core\\src\\slice\\mod.rs" "C10C6D551EED786D814947FD381E19AF302478CE848906D2F46188E73B909A17" 3
	.cv_inline_site_id 48 within 47 inlined_at 18 1030 0
	.cv_file	19 "/rustc/e9e6e2e444c30c23a9c878a88fbc3978c2acad95\\library\\core\\src\\slice\\iter.rs" "4C01BFC067C4D2EAA1E26F50434BD9AD4FA47EFD9213BAA54ABFF1D9B53181A2" 3
	.cv_inline_site_id 49 within 48 inlined_at 19 98 0
	.cv_loc	49 2 1149 0
	mov	rdx, rax
	add	rdx, rcx
.Ltmp204:
	.cv_loc	46 17 855 0
	pop	rcx
	ret
.Ltmp205:
.Lfunc_end23:
	.seh_endproc

	.def	_ZN4core4char7convert18from_u32_unchecked18precondition_check17h195ee1852fb76280E;
	.scl	3;
	.type	32;
	.endef
	.section	.text,"xr",one_only,_ZN4core4char7convert18from_u32_unchecked18precondition_check17h195ee1852fb76280E
	.p2align	4, 0x90
_ZN4core4char7convert18from_u32_unchecked18precondition_check17h195ee1852fb76280E:
.Lfunc_begin24:
	.cv_func_id 50
	.cv_loc	50 4 66 0
.seh_proc _ZN4core4char7convert18from_u32_unchecked18precondition_check17h195ee1852fb76280E
	sub	rsp, 40
	.seh_stackalloc 40
	.seh_endprologue
	mov	eax, ecx
	mov	dword ptr [rsp + 32], eax
.Ltmp206:
	.cv_file	20 "/rustc/e9e6e2e444c30c23a9c878a88fbc3978c2acad95\\library\\core\\src\\char\\convert.rs" "19E0DCFC6E51C9A5A9F7252DA4F446A42C58DC79FDDEA4405EB723620D76F8F2" 3
	.cv_inline_site_id 51 within 50 inlined_at 20 30 0
	.cv_loc	51 20 246 0
	xor	eax, 55296
.Ltmp207:
	.cv_inline_site_id 52 within 51 inlined_at 20 246 0
	.cv_loc	52 11 1802 0
	sub	eax, 2048
.Ltmp208:
	.cv_loc	51 20 246 0
	cmp	eax, 1112064
	jae	.LBB24_2
	.cv_loc	51 20 250 0
	mov	eax, dword ptr [rsp + 32]
	mov	dword ptr [rsp + 36], eax
	.cv_loc	51 20 246 0
	jmp	.LBB24_3
.LBB24_2:
	.cv_loc	51 20 247 0
	mov	dword ptr [rsp + 36], 1114112
.Ltmp209:
.LBB24_3:
	.cv_file	21 "/rustc/e9e6e2e444c30c23a9c878a88fbc3978c2acad95\\library\\core\\src\\result.rs" "852DDB704313A0D9CE03F5E04A88316F578BC22B744E7EC111E07A7ADA3BB861" 3
	.cv_loc	51 21 564 0
	xor	eax, eax
	mov	ecx, 1
	cmp	dword ptr [rsp + 36], 1114112
	cmove	rax, rcx
	.cv_file	22 "/rustc/e9e6e2e444c30c23a9c878a88fbc3978c2acad95\\library\\core\\src\\macros\\mod.rs" "849C0B96B0E0E6608A473E27537A36437CB6456169BEEF9EE0B9E9AA7F947DDB" 3
	.cv_loc	51 22 457 0
	cmp	rax, 0
	jne	.LBB24_5
.Ltmp210:
	.cv_loc	50 4 72 0
	add	rsp, 40
	ret
.LBB24_5:
	.cv_loc	50 4 68 0
	lea	rcx, [rip + __unnamed_8]
	mov	edx, 57
	call	_ZN4core9panicking14panic_nounwind17h11d08e774c01f380E
	int3
.Ltmp211:
.Lfunc_end24:
	.seh_endproc

	.def	_ZN4core4hint21unreachable_unchecked18precondition_check17h2c7b89703be2aef8E;
	.scl	3;
	.type	32;
	.endef
	.section	.text,"xr",one_only,_ZN4core4hint21unreachable_unchecked18precondition_check17h2c7b89703be2aef8E
	.p2align	4, 0x90
_ZN4core4hint21unreachable_unchecked18precondition_check17h2c7b89703be2aef8E:
.Lfunc_begin25:
	.cv_func_id 53
	.cv_loc	53 4 66 0
.seh_proc _ZN4core4hint21unreachable_unchecked18precondition_check17h2c7b89703be2aef8E
	sub	rsp, 40
	.seh_stackalloc 40
	.seh_endprologue
.Ltmp212:
	.cv_loc	53 4 68 0
	lea	rcx, [rip + __unnamed_9]
	mov	edx, 82
	call	_ZN4core9panicking14panic_nounwind17h11d08e774c01f380E
	int3
.Ltmp213:
.Lfunc_end25:
	.seh_endproc

	.def	_ZN4core5slice3raw14from_raw_parts18precondition_check17h73600723d4005991E;
	.scl	3;
	.type	32;
	.endef
	.section	.text,"xr",one_only,_ZN4core5slice3raw14from_raw_parts18precondition_check17h73600723d4005991E
	.p2align	4, 0x90
_ZN4core5slice3raw14from_raw_parts18precondition_check17h73600723d4005991E:
.Lfunc_begin26:
	.cv_func_id 54
	.cv_loc	54 4 66 0
.seh_proc _ZN4core5slice3raw14from_raw_parts18precondition_check17h73600723d4005991E
	.seh_handler __CxxFrameHandler3, @unwind, @except
	push	rbp
	.seh_pushreg rbp
	sub	rsp, 144
	.seh_stackalloc 144
	lea	rbp, [rsp + 128]
	.seh_setframe rbp, 128
	.seh_endprologue
	mov	qword ptr [rbp + 8], -2
	mov	qword ptr [rbp - 88], r9
	mov	qword ptr [rbp - 80], r8
	mov	qword ptr [rbp - 72], rdx
	mov	qword ptr [rbp - 64], rcx
.Ltmp218:
	.cv_file	23 "/rustc/e9e6e2e444c30c23a9c878a88fbc3978c2acad95\\library\\core\\src\\slice\\raw.rs" "244D268A3ACC09BC7C042CF843DAA4F6E35DB72FDE4BC9EFE02CBD29FCB3416F" 3
	.cv_inline_site_id 55 within 54 inlined_at 23 137 0
	.cv_loc	55 4 119 0
	cmp	rcx, 0
	jne	.LBB26_2
.Ltmp219:
	.cv_loc	54 23 137 0
	jmp	.LBB26_3
.LBB26_2:
	.cv_inline_site_id 56 within 55 inlined_at 4 119 0
	.cv_file	24 "/rustc/e9e6e2e444c30c23a9c878a88fbc3978c2acad95\\library\\core\\src\\ptr\\const_ptr.rs" "2746734B92B2C4A40B7556F0437BEB4179CF245D3C6D4BAC453BB14E77250B1A" 3
	.cv_inline_site_id 57 within 56 inlined_at 24 1675 0
	.cv_inline_site_id 58 within 57 inlined_at 11 2811 0
	.cv_loc	58 11 79 0
	mov	rcx, qword ptr [rbp - 80]
.Ltmp220:
	mov	rax, rcx
	shr	rax
	movabs	rdx, 6148914691236517205
	and	rax, rdx
	sub	rcx, rax
	movabs	rdx, 3689348814741910323
	mov	rax, rcx
	and	rax, rdx
	shr	rcx, 2
	and	rcx, rdx
	add	rax, rcx
	mov	rcx, rax
	shr	rcx, 4
	add	rax, rcx
	movabs	rcx, 1085102592571150095
	and	rax, rcx
	movabs	rcx, 72340172838076673
	imul	rax, rcx
	shr	rax, 56
	mov	dword ptr [rbp + 4], eax
.Ltmp221:
	.cv_loc	56 24 1675 0
	cmp	dword ptr [rbp + 4], 1
	je	.LBB26_4
	jmp	.LBB26_5
.Ltmp222:
.LBB26_3:
	.cv_loc	54 16 1 0
	jmp	.LBB26_7
.LBB26_4:
	.cv_inline_site_id 59 within 56 inlined_at 24 1693 0
	.cv_loc	59 24 1681 0
	mov	rax, qword ptr [rbp - 64]
	mov	rcx, qword ptr [rbp - 80]
.Ltmp223:
	sub	rcx, 1
	and	rax, rcx
	cmp	rax, 0
.Ltmp224:
	.cv_loc	54 23 137 0
	je	.LBB26_6
	jmp	.LBB26_3
.LBB26_5:
.Ltmp225:
	.cv_file	25 "/rustc/e9e6e2e444c30c23a9c878a88fbc3978c2acad95\\library\\core\\src\\panic.rs" "159478D636195A65038D571BC99D03453764B32B723BA2833A3E455DFFD3EC57" 3
	.cv_inline_site_id 60 within 56 inlined_at 25 108 0
	.cv_loc	60 10 343 0
	lea	rax, [rip + __unnamed_10]
	mov	qword ptr [rbp - 56], rax
	mov	qword ptr [rbp - 48], 1
	mov	qword ptr [rbp - 24], 0
	mov	qword ptr [rbp - 40], 8
	mov	qword ptr [rbp - 32], 0
.Ltmp226:
	.cv_loc	56 24 1676 0
.Ltmp214:
	lea	rdx, [rip + __unnamed_11]
	lea	rcx, [rbp - 56]
	call	_ZN4core9panicking9panic_fmt17h6aea775c407d2a15E
.Ltmp215:
	jmp	.LBB26_14
.Ltmp227:
.LBB26_6:
	.cv_inline_site_id 61 within 54 inlined_at 23 138 0
	.cv_loc	61 4 124 0
	mov	rax, qword ptr [rbp - 72]
.Ltmp228:
	cmp	rax, 0
	sete	cl
	mov	byte ptr [rbp - 89], cl
	cmp	rax, 0
	je	.LBB26_8
	jmp	.LBB26_9
.Ltmp229:
.LBB26_7:
	.cv_loc	54 4 68 0
	lea	rcx, [rip + __unnamed_12]
	mov	edx, 162
	call	_ZN4core9panicking14panic_nounwind17h11d08e774c01f380E
.LBB26_8:
.Ltmp230:
	.cv_loc	61 4 124 0
	mov	qword ptr [rbp - 8], -1
	jmp	.LBB26_10
.LBB26_9:
	mov	al, byte ptr [rbp - 89]
	test	al, 1
	jne	.LBB26_12
	jmp	.LBB26_11
.LBB26_10:
	.cv_loc	61 4 125 0
	mov	rax, qword ptr [rbp - 88]
.Ltmp231:
	cmp	rax, qword ptr [rbp - 8]
.Ltmp232:
	.cv_loc	54 23 138 0
	jbe	.LBB26_16
	jmp	.LBB26_15
.LBB26_11:
	.cv_loc	61 4 124 0
	mov	rcx, qword ptr [rbp - 72]
.Ltmp233:
	movabs	rax, 9223372036854775807
	xor	edx, edx
	div	rcx
	mov	qword ptr [rbp - 8], rax
	jmp	.LBB26_10
.LBB26_12:
.Ltmp216:
	lea	rcx, [rip + __unnamed_13]
	call	_ZN4core9panicking11panic_const23panic_const_div_by_zero17h78eea78a6939edf3E
.Ltmp217:
	jmp	.LBB26_14
.Ltmp234:
.LBB26_14:
	ud2
.LBB26_15:
	.cv_loc	54 16 1 0
	jmp	.LBB26_7
.LBB26_16:
	.cv_loc	54 4 72 0
	add	rsp, 144
	pop	rbp
	ret
	.seh_handlerdata
	.long	($cppxdata$_ZN4core5slice3raw14from_raw_parts18precondition_check17h73600723d4005991E)@IMGREL
	.section	.text,"xr",one_only,_ZN4core5slice3raw14from_raw_parts18precondition_check17h73600723d4005991E
	.seh_endproc
	.def	"?catch$13@?0?_ZN4core5slice3raw14from_raw_parts18precondition_check17h73600723d4005991E@4HA";
	.scl	3;
	.type	32;
	.endef
	.p2align	4, 0x90
"?catch$13@?0?_ZN4core5slice3raw14from_raw_parts18precondition_check17h73600723d4005991E@4HA":
.seh_proc "?catch$13@?0?_ZN4core5slice3raw14from_raw_parts18precondition_check17h73600723d4005991E@4HA"
	.seh_handler __CxxFrameHandler3, @unwind, @except
.LBB26_13:
	mov	qword ptr [rsp + 16], rdx
	push	rbp
	.seh_pushreg rbp
	sub	rsp, 32
	.seh_stackalloc 32
	lea	rbp, [rdx + 128]
	.seh_endprologue
	.cv_loc	54 4 66 0
	call	_ZN4core9panicking19panic_cannot_unwind17h027b91c2a3379ae5E
	int3
.Ltmp235:
.Lfunc_end26:
	.seh_handlerdata
	.long	($cppxdata$_ZN4core5slice3raw14from_raw_parts18precondition_check17h73600723d4005991E)@IMGREL
	.section	.text,"xr",one_only,_ZN4core5slice3raw14from_raw_parts18precondition_check17h73600723d4005991E
	.seh_endproc
	.section	.xdata,"dr",associative,_ZN4core5slice3raw14from_raw_parts18precondition_check17h73600723d4005991E
	.p2align	2, 0x0
$cppxdata$_ZN4core5slice3raw14from_raw_parts18precondition_check17h73600723d4005991E:
	.long	429065506
	.long	2
	.long	($stateUnwindMap$_ZN4core5slice3raw14from_raw_parts18precondition_check17h73600723d4005991E)@IMGREL
	.long	1
	.long	($tryMap$_ZN4core5slice3raw14from_raw_parts18precondition_check17h73600723d4005991E)@IMGREL
	.long	4
	.long	($ip2state$_ZN4core5slice3raw14from_raw_parts18precondition_check17h73600723d4005991E)@IMGREL
	.long	136
	.long	0
	.long	1
$stateUnwindMap$_ZN4core5slice3raw14from_raw_parts18precondition_check17h73600723d4005991E:
	.long	-1
	.long	0
	.long	-1
	.long	0
$tryMap$_ZN4core5slice3raw14from_raw_parts18precondition_check17h73600723d4005991E:
	.long	0
	.long	0
	.long	1
	.long	1
	.long	($handlerMap$0$_ZN4core5slice3raw14from_raw_parts18precondition_check17h73600723d4005991E)@IMGREL
$handlerMap$0$_ZN4core5slice3raw14from_raw_parts18precondition_check17h73600723d4005991E:
	.long	64
	.long	0
	.long	0
	.long	"?catch$13@?0?_ZN4core5slice3raw14from_raw_parts18precondition_check17h73600723d4005991E@4HA"@IMGREL
	.long	56
$ip2state$_ZN4core5slice3raw14from_raw_parts18precondition_check17h73600723d4005991E:
	.long	.Lfunc_begin26@IMGREL
	.long	-1
	.long	.Ltmp214@IMGREL+1
	.long	0
	.long	.Ltmp217@IMGREL+1
	.long	-1
	.long	"?catch$13@?0?_ZN4core5slice3raw14from_raw_parts18precondition_check17h73600723d4005991E@4HA"@IMGREL
	.long	1
	.section	.text,"xr",one_only,_ZN4core5slice3raw14from_raw_parts18precondition_check17h73600723d4005991E

	.def	_ZN4core5slice3raw18from_raw_parts_mut18precondition_check17h62727494251f567dE;
	.scl	3;
	.type	32;
	.endef
	.section	.text,"xr",one_only,_ZN4core5slice3raw18from_raw_parts_mut18precondition_check17h62727494251f567dE
	.p2align	4, 0x90
_ZN4core5slice3raw18from_raw_parts_mut18precondition_check17h62727494251f567dE:
.Lfunc_begin27:
	.cv_func_id 62
	.cv_loc	62 4 66 0
.seh_proc _ZN4core5slice3raw18from_raw_parts_mut18precondition_check17h62727494251f567dE
	.seh_handler __CxxFrameHandler3, @unwind, @except
	push	rbp
	.seh_pushreg rbp
	sub	rsp, 144
	.seh_stackalloc 144
	lea	rbp, [rsp + 128]
	.seh_setframe rbp, 128
	.seh_endprologue
	mov	qword ptr [rbp + 8], -2
	mov	qword ptr [rbp - 88], r9
	mov	qword ptr [rbp - 80], r8
	mov	qword ptr [rbp - 72], rdx
	mov	qword ptr [rbp - 64], rcx
.Ltmp240:
	.cv_inline_site_id 63 within 62 inlined_at 23 191 0
	.cv_loc	63 4 119 0
	cmp	rcx, 0
	jne	.LBB27_2
.Ltmp241:
	.cv_loc	62 23 191 0
	jmp	.LBB27_3
.LBB27_2:
	.cv_inline_site_id 64 within 63 inlined_at 4 119 0
	.cv_inline_site_id 65 within 64 inlined_at 24 1675 0
	.cv_inline_site_id 66 within 65 inlined_at 11 2811 0
	.cv_loc	66 11 79 0
	mov	rcx, qword ptr [rbp - 80]
.Ltmp242:
	mov	rax, rcx
	shr	rax
	movabs	rdx, 6148914691236517205
	and	rax, rdx
	sub	rcx, rax
	movabs	rdx, 3689348814741910323
	mov	rax, rcx
	and	rax, rdx
	shr	rcx, 2
	and	rcx, rdx
	add	rax, rcx
	mov	rcx, rax
	shr	rcx, 4
	add	rax, rcx
	movabs	rcx, 1085102592571150095
	and	rax, rcx
	movabs	rcx, 72340172838076673
	imul	rax, rcx
	shr	rax, 56
	mov	dword ptr [rbp + 4], eax
.Ltmp243:
	.cv_loc	64 24 1675 0
	cmp	dword ptr [rbp + 4], 1
	je	.LBB27_4
	jmp	.LBB27_5
.Ltmp244:
.LBB27_3:
	.cv_loc	62 16 1 0
	jmp	.LBB27_7
.LBB27_4:
	.cv_inline_site_id 67 within 64 inlined_at 24 1693 0
	.cv_loc	67 24 1681 0
	mov	rax, qword ptr [rbp - 64]
	mov	rcx, qword ptr [rbp - 80]
.Ltmp245:
	sub	rcx, 1
	and	rax, rcx
	cmp	rax, 0
.Ltmp246:
	.cv_loc	62 23 191 0
	je	.LBB27_6
	jmp	.LBB27_3
.LBB27_5:
.Ltmp247:
	.cv_inline_site_id 68 within 64 inlined_at 25 108 0
	.cv_loc	68 10 343 0
	lea	rax, [rip + __unnamed_10]
	mov	qword ptr [rbp - 56], rax
	mov	qword ptr [rbp - 48], 1
	mov	qword ptr [rbp - 24], 0
	mov	qword ptr [rbp - 40], 8
	mov	qword ptr [rbp - 32], 0
.Ltmp248:
	.cv_loc	64 24 1676 0
.Ltmp236:
	lea	rdx, [rip + __unnamed_11]
	lea	rcx, [rbp - 56]
	call	_ZN4core9panicking9panic_fmt17h6aea775c407d2a15E
.Ltmp237:
	jmp	.LBB27_14
.Ltmp249:
.LBB27_6:
	.cv_inline_site_id 69 within 62 inlined_at 23 192 0
	.cv_loc	69 4 124 0
	mov	rax, qword ptr [rbp - 72]
.Ltmp250:
	cmp	rax, 0
	sete	cl
	mov	byte ptr [rbp - 89], cl
	cmp	rax, 0
	je	.LBB27_8
	jmp	.LBB27_9
.Ltmp251:
.LBB27_7:
	.cv_loc	62 4 68 0
	lea	rcx, [rip + __unnamed_14]
	mov	edx, 166
	call	_ZN4core9panicking14panic_nounwind17h11d08e774c01f380E
.LBB27_8:
.Ltmp252:
	.cv_loc	69 4 124 0
	mov	qword ptr [rbp - 8], -1
	jmp	.LBB27_10
.LBB27_9:
	mov	al, byte ptr [rbp - 89]
	test	al, 1
	jne	.LBB27_12
	jmp	.LBB27_11
.LBB27_10:
	.cv_loc	69 4 125 0
	mov	rax, qword ptr [rbp - 88]
.Ltmp253:
	cmp	rax, qword ptr [rbp - 8]
.Ltmp254:
	.cv_loc	62 23 192 0
	jbe	.LBB27_16
	jmp	.LBB27_15
.LBB27_11:
	.cv_loc	69 4 124 0
	mov	rcx, qword ptr [rbp - 72]
.Ltmp255:
	movabs	rax, 9223372036854775807
	xor	edx, edx
	div	rcx
	mov	qword ptr [rbp - 8], rax
	jmp	.LBB27_10
.LBB27_12:
.Ltmp238:
	lea	rcx, [rip + __unnamed_13]
	call	_ZN4core9panicking11panic_const23panic_const_div_by_zero17h78eea78a6939edf3E
.Ltmp239:
	jmp	.LBB27_14
.Ltmp256:
.LBB27_14:
	ud2
.LBB27_15:
	.cv_loc	62 16 1 0
	jmp	.LBB27_7
.LBB27_16:
	.cv_loc	62 4 72 0
	add	rsp, 144
	pop	rbp
	ret
	.seh_handlerdata
	.long	($cppxdata$_ZN4core5slice3raw18from_raw_parts_mut18precondition_check17h62727494251f567dE)@IMGREL
	.section	.text,"xr",one_only,_ZN4core5slice3raw18from_raw_parts_mut18precondition_check17h62727494251f567dE
	.seh_endproc
	.def	"?catch$13@?0?_ZN4core5slice3raw18from_raw_parts_mut18precondition_check17h62727494251f567dE@4HA";
	.scl	3;
	.type	32;
	.endef
	.p2align	4, 0x90
"?catch$13@?0?_ZN4core5slice3raw18from_raw_parts_mut18precondition_check17h62727494251f567dE@4HA":
.seh_proc "?catch$13@?0?_ZN4core5slice3raw18from_raw_parts_mut18precondition_check17h62727494251f567dE@4HA"
	.seh_handler __CxxFrameHandler3, @unwind, @except
.LBB27_13:
	mov	qword ptr [rsp + 16], rdx
	push	rbp
	.seh_pushreg rbp
	sub	rsp, 32
	.seh_stackalloc 32
	lea	rbp, [rdx + 128]
	.seh_endprologue
	.cv_loc	62 4 66 0
	call	_ZN4core9panicking19panic_cannot_unwind17h027b91c2a3379ae5E
	int3
.Ltmp257:
.Lfunc_end27:
	.seh_handlerdata
	.long	($cppxdata$_ZN4core5slice3raw18from_raw_parts_mut18precondition_check17h62727494251f567dE)@IMGREL
	.section	.text,"xr",one_only,_ZN4core5slice3raw18from_raw_parts_mut18precondition_check17h62727494251f567dE
	.seh_endproc
	.section	.xdata,"dr",associative,_ZN4core5slice3raw18from_raw_parts_mut18precondition_check17h62727494251f567dE
	.p2align	2, 0x0
$cppxdata$_ZN4core5slice3raw18from_raw_parts_mut18precondition_check17h62727494251f567dE:
	.long	429065506
	.long	2
	.long	($stateUnwindMap$_ZN4core5slice3raw18from_raw_parts_mut18precondition_check17h62727494251f567dE)@IMGREL
	.long	1
	.long	($tryMap$_ZN4core5slice3raw18from_raw_parts_mut18precondition_check17h62727494251f567dE)@IMGREL
	.long	4
	.long	($ip2state$_ZN4core5slice3raw18from_raw_parts_mut18precondition_check17h62727494251f567dE)@IMGREL
	.long	136
	.long	0
	.long	1
$stateUnwindMap$_ZN4core5slice3raw18from_raw_parts_mut18precondition_check17h62727494251f567dE:
	.long	-1
	.long	0
	.long	-1
	.long	0
$tryMap$_ZN4core5slice3raw18from_raw_parts_mut18precondition_check17h62727494251f567dE:
	.long	0
	.long	0
	.long	1
	.long	1
	.long	($handlerMap$0$_ZN4core5slice3raw18from_raw_parts_mut18precondition_check17h62727494251f567dE)@IMGREL
$handlerMap$0$_ZN4core5slice3raw18from_raw_parts_mut18precondition_check17h62727494251f567dE:
	.long	64
	.long	0
	.long	0
	.long	"?catch$13@?0?_ZN4core5slice3raw18from_raw_parts_mut18precondition_check17h62727494251f567dE@4HA"@IMGREL
	.long	56
$ip2state$_ZN4core5slice3raw18from_raw_parts_mut18precondition_check17h62727494251f567dE:
	.long	.Lfunc_begin27@IMGREL
	.long	-1
	.long	.Ltmp236@IMGREL+1
	.long	0
	.long	.Ltmp239@IMGREL+1
	.long	-1
	.long	"?catch$13@?0?_ZN4core5slice3raw18from_raw_parts_mut18precondition_check17h62727494251f567dE@4HA"@IMGREL
	.long	1
	.section	.text,"xr",one_only,_ZN4core5slice3raw18from_raw_parts_mut18precondition_check17h62727494251f567dE

	.def	_ZN4core6option15Option$LT$T$GT$9unwrap_or17h6a18bb01978a3c41E;
	.scl	3;
	.type	32;
	.endef
	.section	.text,"xr",one_only,_ZN4core6option15Option$LT$T$GT$9unwrap_or17h6a18bb01978a3c41E
	.p2align	4, 0x90
_ZN4core6option15Option$LT$T$GT$9unwrap_or17h6a18bb01978a3c41E:
.Lfunc_begin28:
	.cv_func_id 70
	.cv_loc	70 3 983 0
.seh_proc _ZN4core6option15Option$LT$T$GT$9unwrap_or17h6a18bb01978a3c41E
	sub	rsp, 16
	.seh_stackalloc 16
	.seh_endprologue
	mov	dword ptr [rsp + 4], edx
	mov	dword ptr [rsp + 8], ecx
.Ltmp258:
	.cv_loc	70 3 984 0
	mov	eax, 1
	xor	ecx, ecx
	cmp	dword ptr [rsp + 8], 1114112
	cmove	rax, rcx
	cmp	rax, 0
	jne	.LBB28_2
	.cv_loc	70 3 986 0
	mov	eax, dword ptr [rsp + 4]
	mov	dword ptr [rsp + 12], eax
	jmp	.LBB28_3
.LBB28_2:
	.cv_loc	70 3 985 0
	mov	eax, dword ptr [rsp + 8]
.Ltmp259:
	.cv_loc	70 3 985 0
	mov	dword ptr [rsp + 12], eax
.Ltmp260:
.LBB28_3:
	.cv_loc	70 3 988 0
	mov	eax, dword ptr [rsp + 12]
	add	rsp, 16
	ret
.Ltmp261:
.Lfunc_end28:
	.seh_endproc

	.def	_ZN4core6result19Result$LT$T$C$E$GT$6expect17hea8876c5aa45f455E;
	.scl	3;
	.type	32;
	.endef
	.section	.text,"xr",one_only,_ZN4core6result19Result$LT$T$C$E$GT$6expect17hea8876c5aa45f455E
	.p2align	4, 0x90
_ZN4core6result19Result$LT$T$C$E$GT$6expect17hea8876c5aa45f455E:
.Lfunc_begin29:
	.cv_func_id 71
	.cv_loc	71 21 1053 0
.seh_proc _ZN4core6result19Result$LT$T$C$E$GT$6expect17hea8876c5aa45f455E
	.seh_handler __CxxFrameHandler3, @unwind, @except
	push	rbp
	.seh_pushreg rbp
	sub	rsp, 96
	.seh_stackalloc 96
	lea	rbp, [rsp + 96]
	.seh_setframe rbp, 96
	.seh_endprologue
	mov	qword ptr [rbp - 8], -2
	mov	qword ptr [rbp - 56], r9
	mov	qword ptr [rbp - 48], r8
	mov	rax, qword ptr [rbp + 48]
	mov	qword ptr [rbp - 40], rax
	mov	qword ptr [rbp - 32], rcx
	mov	qword ptr [rbp - 24], rdx
.Ltmp264:
	.cv_loc	71 21 1057 0
	cmp	qword ptr [rbp - 32], 0
	jne	.LBB29_2
	.cv_loc	71 21 1058 0
	mov	rax, qword ptr [rbp - 24]
	.cv_loc	71 21 1061 0
	add	rsp, 96
	pop	rbp
	ret
.LBB29_2:
	.cv_loc	71 21 1059 0
	mov	rdx, qword ptr [rbp - 56]
	mov	rcx, qword ptr [rbp - 48]
	mov	r8, qword ptr [rbp - 40]
	mov	rax, qword ptr [rbp - 24]
	mov	qword ptr [rbp - 16], rax
	.cv_loc	71 21 1059 0
.Ltmp262:
.Ltmp265:
	mov	rax, rsp
	mov	qword ptr [rax + 32], r8
	lea	r9, [rip + __unnamed_15]
	lea	r8, [rbp - 16]
	call	_ZN4core6result13unwrap_failed17h06d638febd0b9fceE
.Ltmp263:
	jmp	.LBB29_4
.Ltmp266:
.LBB29_4:
	ud2
	.seh_handlerdata
	.long	($cppxdata$_ZN4core6result19Result$LT$T$C$E$GT$6expect17hea8876c5aa45f455E)@IMGREL
	.section	.text,"xr",one_only,_ZN4core6result19Result$LT$T$C$E$GT$6expect17hea8876c5aa45f455E
	.seh_endproc
	.def	"?dtor$3@?0?_ZN4core6result19Result$LT$T$C$E$GT$6expect17hea8876c5aa45f455E@4HA";
	.scl	3;
	.type	32;
	.endef
	.p2align	4, 0x90
"?dtor$3@?0?_ZN4core6result19Result$LT$T$C$E$GT$6expect17hea8876c5aa45f455E@4HA":
.seh_proc "?dtor$3@?0?_ZN4core6result19Result$LT$T$C$E$GT$6expect17hea8876c5aa45f455E@4HA"
.LBB29_3:
	mov	qword ptr [rsp + 16], rdx
	push	rbp
	.seh_pushreg rbp
	sub	rsp, 48
	.seh_stackalloc 48
	lea	rbp, [rdx + 96]
	.seh_endprologue
	lea	rcx, [rbp - 16]
	.cv_loc	71 21 1059 0
	call	_ZN4core3ptr42drop_in_place$LT$std..io..error..Error$GT$17hfb47334e57d1dc30E
	.cv_loc	71 21 1053 0
	nop
	add	rsp, 48
	pop	rbp
	ret
.Ltmp267:
.Lfunc_end29:
	.seh_handlerdata
	.section	.text,"xr",one_only,_ZN4core6result19Result$LT$T$C$E$GT$6expect17hea8876c5aa45f455E
	.seh_endproc
	.section	.xdata,"dr",associative,_ZN4core6result19Result$LT$T$C$E$GT$6expect17hea8876c5aa45f455E
	.p2align	2, 0x0
$cppxdata$_ZN4core6result19Result$LT$T$C$E$GT$6expect17hea8876c5aa45f455E:
	.long	429065506
	.long	1
	.long	($stateUnwindMap$_ZN4core6result19Result$LT$T$C$E$GT$6expect17hea8876c5aa45f455E)@IMGREL
	.long	0
	.long	0
	.long	3
	.long	($ip2state$_ZN4core6result19Result$LT$T$C$E$GT$6expect17hea8876c5aa45f455E)@IMGREL
	.long	88
	.long	0
	.long	1
$stateUnwindMap$_ZN4core6result19Result$LT$T$C$E$GT$6expect17hea8876c5aa45f455E:
	.long	-1
	.long	"?dtor$3@?0?_ZN4core6result19Result$LT$T$C$E$GT$6expect17hea8876c5aa45f455E@4HA"@IMGREL
$ip2state$_ZN4core6result19Result$LT$T$C$E$GT$6expect17hea8876c5aa45f455E:
	.long	.Lfunc_begin29@IMGREL
	.long	-1
	.long	.Ltmp262@IMGREL+1
	.long	0
	.long	.Ltmp263@IMGREL+1
	.long	-1
	.section	.text,"xr",one_only,_ZN4core6result19Result$LT$T$C$E$GT$6expect17hea8876c5aa45f455E

	.def	_ZN54_$LT$$LP$$RP$$u20$as$u20$std..process..Termination$GT$6report17hd6df8ac7e0e03824E;
	.scl	3;
	.type	32;
	.endef
	.section	.text,"xr",one_only,_ZN54_$LT$$LP$$RP$$u20$as$u20$std..process..Termination$GT$6report17hd6df8ac7e0e03824E
	.p2align	4, 0x90
_ZN54_$LT$$LP$$RP$$u20$as$u20$std..process..Termination$GT$6report17hd6df8ac7e0e03824E:
.Lfunc_begin30:
	.cv_func_id 72
	.cv_loc	72 7 2442 0
	xor	eax, eax
	ret
.Ltmp268:
.Lfunc_end30:

	.def	_ZN5alloc6string6String3new17h5108b265a958c04bE;
	.scl	3;
	.type	32;
	.endef
	.section	.text,"xr",one_only,_ZN5alloc6string6String3new17h5108b265a958c04bE
	.p2align	4, 0x90
_ZN5alloc6string6String3new17h5108b265a958c04bE:
.Lfunc_begin31:
	.cv_func_id 73
	.cv_file	26 "/rustc/e9e6e2e444c30c23a9c878a88fbc3978c2acad95\\library\\alloc\\src\\string.rs" "C9CA04F9D7EE72660960D8F03798A3415C4B4D810307568B0DED7049998ECC48" 3
	.cv_loc	73 26 448 0
.seh_proc _ZN5alloc6string6String3new17h5108b265a958c04bE
	sub	rsp, 24
	.seh_stackalloc 24
	.seh_endprologue
	mov	rax, rcx
.Ltmp269:
	.cv_file	27 "/rustc/e9e6e2e444c30c23a9c878a88fbc3978c2acad95\\library\\alloc\\src\\vec\\mod.rs" "FD7BAA9FF36279B8685D3C43C5BF6917ADA16CC4F50ABB23DCD04E5A88CEAF35" 3
	.cv_inline_site_id 74 within 73 inlined_at 26 449 0
	.cv_loc	74 27 423 0
	mov	qword ptr [rsp], 0
	mov	edx, 1
	mov	qword ptr [rsp + 8], rdx
	mov	qword ptr [rsp + 16], 0
.Ltmp270:
	.cv_loc	73 26 449 0
	mov	rdx, qword ptr [rsp]
	mov	qword ptr [rcx], rdx
	mov	rdx, qword ptr [rsp + 8]
	mov	qword ptr [rcx + 8], rdx
	mov	rdx, qword ptr [rsp + 16]
	mov	qword ptr [rcx + 16], rdx
	.cv_loc	73 26 450 0
	add	rsp, 24
	ret
.Ltmp271:
.Lfunc_end31:
	.seh_endproc

	.def	_ZN5alloc6string6String5clear17he25ca9368ce252b3E;
	.scl	3;
	.type	32;
	.endef
	.section	.text,"xr",one_only,_ZN5alloc6string6String5clear17he25ca9368ce252b3E
	.p2align	4, 0x90
_ZN5alloc6string6String5clear17he25ca9368ce252b3E:
.Lfunc_begin32:
	.cv_func_id 75
	.cv_loc	75 26 1831 0
.seh_proc _ZN5alloc6string6String5clear17he25ca9368ce252b3E
	sub	rsp, 56
	.seh_stackalloc 56
	.seh_endprologue
	mov	qword ptr [rsp + 32], rcx
.Ltmp272:
	.cv_file	28 "/rustc/e9e6e2e444c30c23a9c878a88fbc3978c2acad95\\library\\alloc\\src\\raw_vec.rs" "8EE6D4C45E87CC292AD90C265B4E2A1CD966495956E44A2AEBD647C92009BFC7" 3
	.cv_inline_site_id 76 within 75 inlined_at 26 1832 0
	.cv_inline_site_id 77 within 76 inlined_at 27 2229 0
	.cv_inline_site_id 78 within 77 inlined_at 27 1272 0
	.cv_inline_site_id 79 within 78 inlined_at 27 2823 0
	.cv_inline_site_id 80 within 79 inlined_at 27 1392 0
	.cv_loc	80 28 278 0
	mov	rax, qword ptr [rcx + 8]
	mov	qword ptr [rsp + 40], rax
.Ltmp273:
	.cv_loc	78 27 2823 0
	mov	rax, qword ptr [rcx + 16]
	mov	qword ptr [rsp + 48], rax
	.cv_loc	79 4 75 0
	mov	r9, qword ptr [rsp + 48]
	mov	rcx, qword ptr [rsp + 40]
.Ltmp274:
	mov	r8d, 1
	mov	rdx, r8
	call	_ZN4core5slice3raw18from_raw_parts_mut18precondition_check17h62727494251f567dE
.Ltmp275:
	.cv_loc	76 27 2238 0
	mov	rax, qword ptr [rsp + 32]
.Ltmp276:
	mov	qword ptr [rax + 16], 0
.Ltmp277:
	.cv_loc	75 26 1833 0
	add	rsp, 56
	ret
.Ltmp278:
.Lfunc_end32:
	.seh_endproc

	.def	_ZN5alloc7raw_vec19RawVec$LT$T$C$A$GT$14current_memory17h958668bd129044d9E;
	.scl	3;
	.type	32;
	.endef
	.section	.text,"xr",one_only,_ZN5alloc7raw_vec19RawVec$LT$T$C$A$GT$14current_memory17h958668bd129044d9E
	.p2align	4, 0x90
_ZN5alloc7raw_vec19RawVec$LT$T$C$A$GT$14current_memory17h958668bd129044d9E:
.Lfunc_begin33:
	.cv_func_id 81
	.cv_loc	81 28 299 0
.seh_proc _ZN5alloc7raw_vec19RawVec$LT$T$C$A$GT$14current_memory17h958668bd129044d9E
	sub	rsp, 88
	.seh_stackalloc 88
	.seh_endprologue
	mov	qword ptr [rsp + 40], rdx
	mov	qword ptr [rsp + 48], rcx
	mov	qword ptr [rsp + 56], rcx
	.cv_loc	81 28 300 0
	mov	rax, qword ptr [rsp + 40]
.Ltmp279:
	cmp	qword ptr [rax], 0
	jne	.LBB33_3
	jmp	.LBB33_4
.LBB33_3:
	.cv_loc	81 28 310 0
	mov	rax, qword ptr [rsp + 40]
.Ltmp280:
	mov	rax, qword ptr [rax]
	mov	qword ptr [rsp + 32], rax
.Ltmp281:
	.cv_inline_site_id 82 within 81 inlined_at 28 310 0
	.cv_loc	82 4 74 0
	jmp	.LBB33_5
.Ltmp282:
.LBB33_4:
	.cv_loc	81 28 301 0
	mov	rax, qword ptr [rsp + 48]
	mov	qword ptr [rax + 8], 0
	.cv_loc	81 28 300 0
	jmp	.LBB33_7
.LBB33_5:
	.cv_loc	82 4 75 0
	mov	rdx, qword ptr [rsp + 32]
.Ltmp283:
	mov	ecx, 1
	call	_ZN4core3num23_$LT$impl$u20$usize$GT$13unchecked_mul18precondition_check17h7eb4f4231e97c1dfE
	.cv_loc	82 11 831 0
	mov	rax, qword ptr [rsp + 48]
	mov	rdx, qword ptr [rsp + 40]
	mov	rcx, qword ptr [rsp + 32]
	shl	rcx, 0
.Ltmp284:
	.cv_loc	81 28 312 0
	mov	rdx, qword ptr [rdx + 8]
	mov	qword ptr [rsp + 64], rdx
	mov	qword ptr [rsp + 72], 1
	mov	qword ptr [rsp + 80], rcx
	mov	rcx, qword ptr [rsp + 64]
	mov	qword ptr [rax], rcx
	mov	rcx, qword ptr [rsp + 72]
	mov	qword ptr [rax + 8], rcx
	mov	rcx, qword ptr [rsp + 80]
	mov	qword ptr [rax + 16], rcx
.Ltmp285:
.LBB33_7:
	.cv_loc	81 28 315 0
	mov	rax, qword ptr [rsp + 56]
	add	rsp, 88
	ret
.Ltmp286:
.Lfunc_end33:
	.seh_endproc

	.def	_ZN63_$LT$alloc..alloc..Global$u20$as$u20$core..alloc..Allocator$GT$10deallocate17hd6f43756687993e6E;
	.scl	3;
	.type	32;
	.endef
	.section	.text,"xr",one_only,_ZN63_$LT$alloc..alloc..Global$u20$as$u20$core..alloc..Allocator$GT$10deallocate17hd6f43756687993e6E
	.p2align	4, 0x90
_ZN63_$LT$alloc..alloc..Global$u20$as$u20$core..alloc..Allocator$GT$10deallocate17hd6f43756687993e6E:
.Lfunc_begin34:
	.cv_func_id 83
	.cv_file	29 "/rustc/e9e6e2e444c30c23a9c878a88fbc3978c2acad95\\library\\alloc\\src\\alloc.rs" "E404C9C93E37123AC41EE643BC9C4B4657CA737F5BCE2141CC40BB2CB68E939D" 3
	.cv_loc	83 29 252 0
.seh_proc _ZN63_$LT$alloc..alloc..Global$u20$as$u20$core..alloc..Allocator$GT$10deallocate17hd6f43756687993e6E
	sub	rsp, 88
	.seh_stackalloc 88
	.seh_endprologue
	mov	qword ptr [rsp + 32], rdx
	mov	qword ptr [rsp + 48], r8
	mov	qword ptr [rsp + 56], r9
.Ltmp287:
	.cv_file	30 "/rustc/e9e6e2e444c30c23a9c878a88fbc3978c2acad95\\library\\core\\src\\alloc\\layout.rs" "26F2C53198E5FAC0D876391B1B38F0DDF8108B6F58834B4A079AB793610522A7" 3
	.cv_inline_site_id 84 within 83 inlined_at 29 253 0
	.cv_loc	84 30 131 0
	mov	rax, qword ptr [rsp + 56]
	mov	qword ptr [rsp + 40], rax
.Ltmp288:
	.cv_loc	83 29 253 0
	cmp	rax, 0
	jne	.LBB34_2
.LBB34_1:
	.cv_loc	83 29 258 0
	add	rsp, 88
	ret
.LBB34_2:
	.cv_loc	83 29 256 0
	mov	rdx, qword ptr [rsp + 40]
	mov	rcx, qword ptr [rsp + 32]
	mov	r8, qword ptr [rsp + 48]
	mov	rax, qword ptr [rsp + 56]
	mov	qword ptr [rsp + 64], r8
	mov	qword ptr [rsp + 72], rax
.Ltmp289:
	.cv_inline_site_id 85 within 83 inlined_at 29 256 0
	.cv_inline_site_id 86 within 85 inlined_at 29 119 0
	.cv_loc	86 30 144 0
	mov	rax, qword ptr [rsp + 48]
.Ltmp290:
	.cv_file	31 "/rustc/e9e6e2e444c30c23a9c878a88fbc3978c2acad95\\library\\core\\src\\ptr\\alignment.rs" "2F8131285C64C30610E5339FCF203B58788B83885639DC82A756A901560EFA82" 3
	.cv_inline_site_id 87 within 86 inlined_at 30 144 0
	.cv_loc	87 31 97 0
	mov	qword ptr [rsp + 80], rax
	mov	r8, qword ptr [rsp + 80]
.Ltmp291:
	.cv_loc	85 29 119 0
	call	__rust_dealloc
.Ltmp292:
	.cv_loc	83 29 253 0
	jmp	.LBB34_1
.Ltmp293:
.Lfunc_end34:
	.seh_endproc

	.def	_ZN65_$LT$alloc..string..String$u20$as$u20$core..ops..deref..Deref$GT$5deref17he60f38dbd839c6e6E;
	.scl	3;
	.type	32;
	.endef
	.section	.text,"xr",one_only,_ZN65_$LT$alloc..string..String$u20$as$u20$core..ops..deref..Deref$GT$5deref17he60f38dbd839c6e6E
	.p2align	4, 0x90
_ZN65_$LT$alloc..string..String$u20$as$u20$core..ops..deref..Deref$GT$5deref17he60f38dbd839c6e6E:
.Lfunc_begin35:
	.cv_func_id 88
	.cv_loc	88 26 2483 0
.seh_proc _ZN65_$LT$alloc..string..String$u20$as$u20$core..ops..deref..Deref$GT$5deref17he60f38dbd839c6e6E
	sub	rsp, 56
	.seh_stackalloc 56
	.seh_endprologue
.Ltmp294:
	.cv_inline_site_id 89 within 88 inlined_at 26 2484 0
	.cv_inline_site_id 90 within 89 inlined_at 27 2815 0
	.cv_inline_site_id 91 within 90 inlined_at 27 1332 0
	.cv_loc	91 28 278 0
	mov	rax, qword ptr [rcx + 8]
	mov	qword ptr [rsp + 40], rax
.Ltmp295:
	.cv_loc	89 27 2815 0
	mov	rax, qword ptr [rcx + 16]
	mov	qword ptr [rsp + 48], rax
	.cv_loc	90 4 75 0
	mov	r9, qword ptr [rsp + 48]
	mov	rcx, qword ptr [rsp + 40]
.Ltmp296:
	mov	r8d, 1
	mov	rdx, r8
	call	_ZN4core5slice3raw14from_raw_parts18precondition_check17h73600723d4005991E
.Ltmp297:
	.cv_loc	88 26 2485 0
	mov	rdx, qword ptr [rsp + 48]
	mov	rax, qword ptr [rsp + 40]
	add	rsp, 56
	ret
.Ltmp298:
.Lfunc_end35:
	.seh_endproc

	.def	_ZN70_$LT$alloc..vec..Vec$LT$T$C$A$GT$$u20$as$u20$core..ops..drop..Drop$GT$4drop17h7db163b6a6b5f698E;
	.scl	3;
	.type	32;
	.endef
	.section	.text,"xr",one_only,_ZN70_$LT$alloc..vec..Vec$LT$T$C$A$GT$$u20$as$u20$core..ops..drop..Drop$GT$4drop17h7db163b6a6b5f698E
	.p2align	4, 0x90
_ZN70_$LT$alloc..vec..Vec$LT$T$C$A$GT$$u20$as$u20$core..ops..drop..Drop$GT$4drop17h7db163b6a6b5f698E:
.Lfunc_begin36:
	.cv_func_id 92
	.cv_loc	92 27 3284 0
	ret
.Ltmp299:
.Lfunc_end36:

	.def	_ZN72_$LT$alloc..boxed..Box$LT$T$C$A$GT$$u20$as$u20$core..ops..drop..Drop$GT$4drop17h3fc0d018149b9431E;
	.scl	3;
	.type	32;
	.endef
	.section	.text,"xr",one_only,_ZN72_$LT$alloc..boxed..Box$LT$T$C$A$GT$$u20$as$u20$core..ops..drop..Drop$GT$4drop17h3fc0d018149b9431E
	.p2align	4, 0x90
_ZN72_$LT$alloc..boxed..Box$LT$T$C$A$GT$$u20$as$u20$core..ops..drop..Drop$GT$4drop17h3fc0d018149b9431E:
.Lfunc_begin37:
	.cv_func_id 93
	.cv_file	32 "/rustc/e9e6e2e444c30c23a9c878a88fbc3978c2acad95\\library\\alloc\\src\\boxed.rs" "CDD78F490EB2242AB2CBED5516EB80050DCBD6FE06671C6EA191C0872027F649" 3
	.cv_loc	93 32 1281 0
.seh_proc _ZN72_$LT$alloc..boxed..Box$LT$T$C$A$GT$$u20$as$u20$core..ops..drop..Drop$GT$4drop17h3fc0d018149b9431E
	sub	rsp, 88
	.seh_stackalloc 88
	.seh_endprologue
	mov	qword ptr [rsp + 40], rcx
.Ltmp300:
	.cv_loc	93 32 1284 0
	mov	rax, qword ptr [rcx]
	mov	qword ptr [rsp + 48], rax
	mov	rcx, qword ptr [rcx + 8]
.Ltmp301:
	.cv_file	33 "/rustc/e9e6e2e444c30c23a9c878a88fbc3978c2acad95\\library\\core\\src\\mem\\mod.rs" "DB3916ACAE8D5A79617ABC23009CA5ED9E22ABDE6259992689F233F02B17C124" 3
	.cv_inline_site_id 94 within 93 inlined_at 32 1287 0
	.cv_inline_site_id 95 within 94 inlined_at 30 203 0
	.cv_loc	95 33 394 0
	mov	rax, qword ptr [rcx + 8]
	mov	qword ptr [rsp + 72], rax
	mov	rax, qword ptr [rsp + 72]
.Ltmp302:
	.cv_loc	95 33 536 0
	mov	rcx, qword ptr [rcx + 16]
	mov	qword ptr [rsp + 80], rcx
	mov	rcx, qword ptr [rsp + 80]
.Ltmp303:
	.cv_inline_site_id 96 within 94 inlined_at 30 205 0
	.cv_loc	96 30 122 0
	mov	qword ptr [rsp + 64], rax
	mov	qword ptr [rsp + 56], rcx
.Ltmp304:
	.cv_loc	93 32 1288 0
	cmp	rax, 0
	jne	.LBB37_2
.Ltmp305:
.LBB37_1:
	.cv_loc	93 32 1292 0
	add	rsp, 88
	ret
.LBB37_2:
	.cv_loc	93 32 1289 0
	mov	rdx, qword ptr [rsp + 48]
	mov	rcx, qword ptr [rsp + 40]
.Ltmp306:
	add	rcx, 16
	mov	r8, qword ptr [rsp + 56]
	mov	r9, qword ptr [rsp + 64]
	call	_ZN63_$LT$alloc..alloc..Global$u20$as$u20$core..alloc..Allocator$GT$10deallocate17hd6f43756687993e6E
	.cv_loc	93 32 1288 0
	jmp	.LBB37_1
.Ltmp307:
.Lfunc_end37:
	.seh_endproc

	.def	_ZN72_$LT$alloc..boxed..Box$LT$T$C$A$GT$$u20$as$u20$core..ops..drop..Drop$GT$4drop17h5d753bba12f06960E;
	.scl	3;
	.type	32;
	.endef
	.section	.text,"xr",one_only,_ZN72_$LT$alloc..boxed..Box$LT$T$C$A$GT$$u20$as$u20$core..ops..drop..Drop$GT$4drop17h5d753bba12f06960E
	.p2align	4, 0x90
_ZN72_$LT$alloc..boxed..Box$LT$T$C$A$GT$$u20$as$u20$core..ops..drop..Drop$GT$4drop17h5d753bba12f06960E:
.Lfunc_begin38:
	.cv_func_id 97
	.cv_loc	97 32 1281 0
.seh_proc _ZN72_$LT$alloc..boxed..Box$LT$T$C$A$GT$$u20$as$u20$core..ops..drop..Drop$GT$4drop17h5d753bba12f06960E
	sub	rsp, 88
	.seh_stackalloc 88
	.seh_endprologue
	mov	qword ptr [rsp + 40], rcx
.Ltmp308:
	.cv_loc	97 32 1284 0
	mov	rax, qword ptr [rcx]
	mov	qword ptr [rsp + 48], rax
.Ltmp309:
	.cv_inline_site_id 98 within 97 inlined_at 32 1287 0
	.cv_inline_site_id 99 within 98 inlined_at 30 203 0
	.cv_loc	99 33 394 0
	mov	qword ptr [rsp + 72], 24
	mov	rax, qword ptr [rsp + 72]
.Ltmp310:
	.cv_loc	99 33 536 0
	mov	qword ptr [rsp + 80], 8
	mov	rcx, qword ptr [rsp + 80]
.Ltmp311:
	.cv_inline_site_id 100 within 98 inlined_at 30 205 0
	.cv_loc	100 30 122 0
	mov	qword ptr [rsp + 64], rax
	mov	qword ptr [rsp + 56], rcx
.Ltmp312:
	.cv_loc	97 32 1288 0
	cmp	rax, 0
	jne	.LBB38_2
.Ltmp313:
.LBB38_1:
	.cv_loc	97 32 1292 0
	add	rsp, 88
	ret
.LBB38_2:
	.cv_loc	97 32 1289 0
	mov	rdx, qword ptr [rsp + 48]
	mov	rcx, qword ptr [rsp + 40]
.Ltmp314:
	add	rcx, 8
	mov	r8, qword ptr [rsp + 56]
	mov	r9, qword ptr [rsp + 64]
	call	_ZN63_$LT$alloc..alloc..Global$u20$as$u20$core..alloc..Allocator$GT$10deallocate17hd6f43756687993e6E
	.cv_loc	97 32 1288 0
	jmp	.LBB38_1
.Ltmp315:
.Lfunc_end38:
	.seh_endproc

	.def	_ZN77_$LT$alloc..raw_vec..RawVec$LT$T$C$A$GT$$u20$as$u20$core..ops..drop..Drop$GT$4drop17h1217420d382789afE;
	.scl	3;
	.type	32;
	.endef
	.section	.text,"xr",one_only,_ZN77_$LT$alloc..raw_vec..RawVec$LT$T$C$A$GT$$u20$as$u20$core..ops..drop..Drop$GT$4drop17h1217420d382789afE
	.p2align	4, 0x90
_ZN77_$LT$alloc..raw_vec..RawVec$LT$T$C$A$GT$$u20$as$u20$core..ops..drop..Drop$GT$4drop17h1217420d382789afE:
.Lfunc_begin39:
	.cv_func_id 101
	.cv_loc	101 28 581 0
.seh_proc _ZN77_$LT$alloc..raw_vec..RawVec$LT$T$C$A$GT$$u20$as$u20$core..ops..drop..Drop$GT$4drop17h1217420d382789afE
	sub	rsp, 72
	.seh_stackalloc 72
	.seh_endprologue
	mov	rdx, rcx
	mov	qword ptr [rsp + 40], rdx
.Ltmp316:
	.cv_loc	101 28 582 0
	lea	rcx, [rsp + 48]
	call	_ZN5alloc7raw_vec19RawVec$LT$T$C$A$GT$14current_memory17h958668bd129044d9E
	mov	eax, 1
	xor	ecx, ecx
	cmp	qword ptr [rsp + 56], 0
	cmove	rax, rcx
	cmp	rax, 1
	jne	.LBB39_2
	mov	rcx, qword ptr [rsp + 40]
	mov	rdx, qword ptr [rsp + 48]
	mov	r8, qword ptr [rsp + 56]
	mov	r9, qword ptr [rsp + 64]
	.cv_loc	101 28 583 0
	add	rcx, 16
	call	_ZN63_$LT$alloc..alloc..Global$u20$as$u20$core..alloc..Allocator$GT$10deallocate17hd6f43756687993e6E
.Ltmp317:
.LBB39_2:
	.cv_loc	101 28 585 0
	nop
	add	rsp, 72
	ret
.Ltmp318:
.Lfunc_end39:
	.seh_endproc

	.def	_ZN78_$LT$std..io..error..repr_bitpacked..Repr$u20$as$u20$core..ops..drop..Drop$GT$4drop17h00d4287f763ff346E;
	.scl	3;
	.type	32;
	.endef
	.section	.text,"xr",one_only,_ZN78_$LT$std..io..error..repr_bitpacked..Repr$u20$as$u20$core..ops..drop..Drop$GT$4drop17h00d4287f763ff346E
	.p2align	4, 0x90
_ZN78_$LT$std..io..error..repr_bitpacked..Repr$u20$as$u20$core..ops..drop..Drop$GT$4drop17h00d4287f763ff346E:
.Lfunc_begin40:
	.cv_func_id 102
	.cv_loc	102 1 236 0
.seh_proc _ZN78_$LT$std..io..error..repr_bitpacked..Repr$u20$as$u20$core..ops..drop..Drop$GT$4drop17h00d4287f763ff346E
	sub	rsp, 56
	.seh_stackalloc 56
	.seh_endprologue
.Ltmp319:
	.cv_loc	102 1 240 0
	mov	rdx, qword ptr [rcx]
	lea	rcx, [rsp + 40]
	call	_ZN3std2io5error14repr_bitpacked11decode_repr17h086e9aa4288480f4E
	lea	rcx, [rsp + 40]
	call	_ZN4core3ptr101drop_in_place$LT$std..io..error..ErrorData$LT$alloc..boxed..Box$LT$std..io..error..Custom$GT$$GT$$GT$17h33a3200c6de2a0b4E
	.cv_loc	102 1 242 0
	nop
	add	rsp, 56
	ret
.Ltmp320:
.Lfunc_end40:
	.seh_endproc

	.def	_ZN78_$LT$std..io..error..repr_bitpacked..Repr$u20$as$u20$core..ops..drop..Drop$GT$4drop28_$u7b$$u7b$closure$u7d$$u7d$17h51496b149df49910E;
	.scl	3;
	.type	32;
	.endef
	.section	.text,"xr",one_only,_ZN78_$LT$std..io..error..repr_bitpacked..Repr$u20$as$u20$core..ops..drop..Drop$GT$4drop28_$u7b$$u7b$closure$u7d$$u7d$17h51496b149df49910E
	.p2align	4, 0x90
_ZN78_$LT$std..io..error..repr_bitpacked..Repr$u20$as$u20$core..ops..drop..Drop$GT$4drop28_$u7b$$u7b$closure$u7d$$u7d$17h51496b149df49910E:
.Lfunc_begin41:
	.cv_func_id 103
	.cv_loc	103 1 240 0
.seh_proc _ZN78_$LT$std..io..error..repr_bitpacked..Repr$u20$as$u20$core..ops..drop..Drop$GT$4drop28_$u7b$$u7b$closure$u7d$$u7d$17h51496b149df49910E
	sub	rsp, 40
	.seh_stackalloc 40
	.seh_endprologue
	mov	qword ptr [rsp + 32], rcx
.Ltmp321:
	.cv_inline_site_id 104 within 103 inlined_at 1 240 0
	.cv_inline_site_id 105 within 104 inlined_at 32 994 0
	.cv_inline_site_id 106 within 105 inlined_at 32 1050 0
	.cv_file	34 "/rustc/e9e6e2e444c30c23a9c878a88fbc3978c2acad95\\library\\core\\src\\ptr\\unique.rs" "6FFF15F40FAA927E6CB282CA3E4E1744D4893DE58E9CF0851DC72CC0492CB05F" 3
	.cv_inline_site_id 107 within 106 inlined_at 34 89 0
	.cv_loc	107 4 74 0
	jmp	.LBB41_1
.LBB41_1:
	.cv_loc	107 4 75 0
	mov	rcx, qword ptr [rsp + 32]
	call	_ZN4core3ptr8non_null16NonNull$LT$T$GT$13new_unchecked18precondition_check17h18d80fd42b6166fcE
.Ltmp322:
	.cv_loc	103 1 240 0
	mov	rax, qword ptr [rsp + 32]
	add	rsp, 40
	ret
.Ltmp323:
.Lfunc_end41:
	.seh_endproc

	.def	_ZN81_$LT$core..str..iter..Chars$u20$as$u20$core..iter..traits..iterator..Iterator$GT$4next17he62bc1674c101e7eE;
	.scl	3;
	.type	32;
	.endef
	.section	.text,"xr",one_only,_ZN81_$LT$core..str..iter..Chars$u20$as$u20$core..iter..traits..iterator..Iterator$GT$4next17he62bc1674c101e7eE
	.p2align	4, 0x90
_ZN81_$LT$core..str..iter..Chars$u20$as$u20$core..iter..traits..iterator..Iterator$GT$4next17he62bc1674c101e7eE:
.Lfunc_begin42:
	.cv_func_id 108
	.cv_file	35 "/rustc/e9e6e2e444c30c23a9c878a88fbc3978c2acad95\\library\\core\\src\\str\\iter.rs" "5C60112C0399FDB5861DAFE4E06DB345D60FC7F3CCCECCC1B618478C814B1A5E" 3
	.cv_loc	108 35 42 0
.seh_proc _ZN81_$LT$core..str..iter..Chars$u20$as$u20$core..iter..traits..iterator..Iterator$GT$4next17he62bc1674c101e7eE
	sub	rsp, 56
	.seh_stackalloc 56
	.seh_endprologue
.Ltmp324:
	.cv_loc	108 35 45 0
	call	_ZN4core3str11validations15next_code_point17h6704861cdae586f9E
	mov	dword ptr [rsp + 48], eax
	mov	dword ptr [rsp + 52], edx
.Ltmp325:
	.cv_inline_site_id 109 within 108 inlined_at 35 45 0
	.cv_loc	109 3 1102 0
	mov	eax, dword ptr [rsp + 48]
	cmp	rax, 0
	jne	.LBB42_2
	.cv_loc	109 3 1104 0
	mov	dword ptr [rsp + 44], 1114112
	.cv_loc	109 3 1106 0
	jmp	.LBB42_3
.LBB42_2:
	.cv_loc	109 3 1103 0
	mov	eax, dword ptr [rsp + 52]
	mov	dword ptr [rsp + 40], eax
.Ltmp326:
	.cv_inline_site_id 110 within 109 inlined_at 3 1103 0
	.cv_inline_site_id 111 within 110 inlined_at 35 45 0
	.cv_file	36 "/rustc/e9e6e2e444c30c23a9c878a88fbc3978c2acad95\\library\\core\\src\\char\\methods.rs" "8559431C61F33FCC8DA1A36D77E370E4680447B127B6A61C3C4D77ABCCF53B10" 3
	.cv_inline_site_id 112 within 111 inlined_at 36 231 0
	.cv_loc	112 4 74 0
	jmp	.LBB42_4
.Ltmp327:
.LBB42_3:
	.cv_loc	108 35 46 0
	mov	eax, dword ptr [rsp + 44]
	add	rsp, 56
	ret
.LBB42_4:
	.cv_loc	112 4 75 0
	mov	ecx, dword ptr [rsp + 40]
.Ltmp328:
	call	_ZN4core4char7convert18from_u32_unchecked18precondition_check17h195ee1852fb76280E
.Ltmp329:
	.cv_loc	109 3 1103 0
	mov	eax, dword ptr [rsp + 40]
	mov	dword ptr [rsp + 44], eax
.Ltmp330:
	.cv_loc	109 3 1103 0
	jmp	.LBB42_3
.Ltmp331:
.Lfunc_end42:
	.seh_endproc

	.def	_ZN91_$LT$core..slice..iter..Iter$LT$T$GT$$u20$as$u20$core..iter..traits..iterator..Iterator$GT$4next17h414b5bfc759975bbE;
	.scl	3;
	.type	32;
	.endef
	.section	.text,"xr",one_only,_ZN91_$LT$core..slice..iter..Iter$LT$T$GT$$u20$as$u20$core..iter..traits..iterator..Iterator$GT$4next17h414b5bfc759975bbE
	.p2align	4, 0x90
_ZN91_$LT$core..slice..iter..Iter$LT$T$GT$$u20$as$u20$core..iter..traits..iterator..Iterator$GT$4next17h414b5bfc759975bbE:
.Lfunc_begin43:
	.cv_func_id 113
	.cv_file	37 "/rustc/e9e6e2e444c30c23a9c878a88fbc3978c2acad95\\library\\core\\src\\slice\\iter\\macros.rs" "4E2BFBBCA721DAA62C56B1A873D53D67C6C21DE2CBF7A232B6742A30D5DEE8C1" 3
	.cv_loc	113 37 156 0
.seh_proc _ZN91_$LT$core..slice..iter..Iter$LT$T$GT$$u20$as$u20$core..iter..traits..iterator..Iterator$GT$4next17h414b5bfc759975bbE
	sub	rsp, 40
	.seh_stackalloc 40
	.seh_endprologue
	mov	qword ptr [rsp], rcx
	.cv_loc	113 37 33 0
	mov	rax, qword ptr [rsp]
.Ltmp332:
	mov	rcx, qword ptr [rax + 8]
	mov	qword ptr [rsp + 24], rcx
.Ltmp333:
	.cv_inline_site_id 114 within 113 inlined_at 37 44 0
	.cv_loc	114 14 1796 0
	mov	rax, qword ptr [rax]
	cmp	rax, qword ptr [rsp + 24]
	sete	al
	and	al, 1
	mov	byte ptr [rsp + 23], al
.Ltmp334:
	.cv_loc	113 37 25 0
	test	byte ptr [rsp + 23], 1
	jne	.LBB43_4
.Ltmp335:
	.cv_inline_site_id 115 within 113 inlined_at 37 165 0
	.cv_inline_site_id 116 within 115 inlined_at 37 443 0
	.cv_loc	116 37 100 0
	mov	rax, qword ptr [rsp]
.Ltmp336:
	mov	rax, qword ptr [rax]
	mov	qword ptr [rsp + 32], rax
.Ltmp337:
	.cv_loc	116 37 14 0
	jmp	.LBB43_5
.Ltmp338:
.LBB43_4:
	.cv_loc	113 37 163 0
	mov	qword ptr [rsp + 8], 0
	.cv_loc	113 37 162 0
	jmp	.LBB43_7
.LBB43_5:
	.cv_loc	116 37 108 0
	mov	rax, qword ptr [rsp]
.Ltmp339:
	mov	rcx, qword ptr [rax]
.Ltmp340:
	.cv_inline_site_id 117 within 116 inlined_at 37 108 0
	.cv_loc	117 14 624 0
	add	rcx, 1
.Ltmp341:
	.cv_loc	116 37 108 0
	mov	qword ptr [rax], rcx
.Ltmp342:
	.cv_inline_site_id 118 within 116 inlined_at 14 402 0
	.cv_loc	118 14 351 0
	mov	rax, qword ptr [rsp + 32]
.Ltmp343:
	.cv_loc	113 37 165 0
	mov	qword ptr [rsp + 8], rax
.LBB43_7:
	.cv_loc	113 37 168 0
	mov	rax, qword ptr [rsp + 8]
	add	rsp, 40
	ret
.Ltmp344:
.Lfunc_end43:
	.seh_endproc

	.def	_ZN6iferoo10handle_new17hce0de8e2f27d7e5cE;
	.scl	3;
	.type	32;
	.endef
	.section	.text,"xr",one_only,_ZN6iferoo10handle_new17hce0de8e2f27d7e5cE
	.p2align	4, 0x90
_ZN6iferoo10handle_new17hce0de8e2f27d7e5cE:
.Lfunc_begin44:
	.cv_func_id 119
	.cv_loc	119 16 11 0
.seh_proc _ZN6iferoo10handle_new17hce0de8e2f27d7e5cE
	sub	rsp, 88
	.seh_stackalloc 88
	.seh_endprologue
.Ltmp345:
	.cv_loc	119 16 12 0
	lea	rcx, [rsp + 40]
	lea	rdx, [rip + __unnamed_16]
	call	_ZN4core3fmt9Arguments9new_const17h9791121e45ca1befE
	lea	rcx, [rsp + 40]
	call	_ZN3std2io5stdio6_print17h5e64d8a80dec601dE
	.cv_loc	119 16 13 0
	nop
	add	rsp, 88
	ret
.Ltmp346:
.Lfunc_end44:
	.seh_endproc

	.def	_ZN6iferoo4main17hf696bac775226e66E;
	.scl	3;
	.type	32;
	.endef
	.section	.text,"xr",one_only,_ZN6iferoo4main17hf696bac775226e66E
	.p2align	4, 0x90
_ZN6iferoo4main17hf696bac775226e66E:
.Lfunc_begin45:
	.cv_func_id 120
	.cv_loc	120 16 15 0
.seh_proc _ZN6iferoo4main17hf696bac775226e66E
	.seh_handler __CxxFrameHandler3, @unwind, @except
	push	rbp
	.seh_pushreg rbp
	sub	rsp, 224
	.seh_stackalloc 224
	lea	rbp, [rsp + 128]
	.seh_setframe rbp, 128
	.seh_endprologue
.Ltmp373:
	.cv_loc	120 16 16 0
	mov	qword ptr [rbp + 88], -2
	lea	rcx, [rbp + 16]
	call	_ZN5alloc6string6String3new17h5108b265a958c04bE
.LBB45_1:
	.cv_loc	120 16 18 0
.Ltmp347:
	lea	rcx, [rbp + 16]
.Ltmp374:
	call	_ZN65_$LT$alloc..string..String$u20$as$u20$core..ops..deref..Deref$GT$5deref17he60f38dbd839c6e6E
.Ltmp348:
	mov	qword ptr [rbp], rdx
	mov	qword ptr [rbp + 8], rax
	jmp	.LBB45_3
.LBB45_3:
.Ltmp349:
	mov	rdx, qword ptr [rbp]
	mov	rcx, qword ptr [rbp + 8]
	call	_ZN4core3str21_$LT$impl$u20$str$GT$5chars17h567eb88f4ce0d003E
.Ltmp350:
	mov	qword ptr [rbp - 16], rdx
	mov	qword ptr [rbp - 8], rax
	jmp	.LBB45_4
.LBB45_4:
	mov	rax, qword ptr [rbp - 16]
	mov	rcx, qword ptr [rbp - 8]
	mov	qword ptr [rbp + 40], rcx
	mov	qword ptr [rbp + 48], rax
.Ltmp351:
	lea	rcx, [rbp + 40]
	call	_ZN81_$LT$core..str..iter..Chars$u20$as$u20$core..iter..traits..iterator..Iterator$GT$4next17he62bc1674c101e7eE
.Ltmp352:
	mov	dword ptr [rbp - 20], eax
	jmp	.LBB45_5
.LBB45_5:
.Ltmp353:
	mov	ecx, dword ptr [rbp - 20]
	xor	edx, edx
	call	_ZN4core6option15Option$LT$T$GT$9unwrap_or17h6a18bb01978a3c41E
.Ltmp354:
	mov	dword ptr [rbp - 24], eax
	jmp	.LBB45_6
.LBB45_6:
	mov	eax, dword ptr [rbp - 24]
	mov	eax, eax
	cmp	rax, 113
	jne	.LBB45_8
.Ltmp375:
	.cv_loc	120 16 29 0
	lea	rcx, [rbp + 16]
	call	_ZN4core3ptr42drop_in_place$LT$alloc..string..String$GT$17h3b601064cce962e2E
	nop
	add	rsp, 224
	pop	rbp
	ret
.LBB45_8:
	.cv_loc	120 16 19 0
.Ltmp355:
.Ltmp376:
	call	_ZN3std2io5stdio5stdin17hc85ef1566d2b0b8aE
.Ltmp356:
	mov	qword ptr [rbp - 32], rax
	jmp	.LBB45_9
.LBB45_9:
	mov	rax, qword ptr [rbp - 32]
	mov	qword ptr [rbp + 56], rax
.Ltmp357:
	lea	rcx, [rbp + 56]
	lea	rdx, [rbp + 16]
	call	_ZN3std2io5stdio5Stdin9read_line17ha3a6a376dbd81ca5E
.Ltmp358:
	mov	qword ptr [rbp - 48], rdx
	mov	qword ptr [rbp - 40], rax
	jmp	.LBB45_10
.LBB45_10:
.Ltmp359:
	mov	rdx, qword ptr [rbp - 48]
	mov	rcx, qword ptr [rbp - 40]
	lea	r8, [rip + __unnamed_17]
	mov	rax, rsp
	mov	qword ptr [rax + 32], r8
	lea	r8, [rip + __unnamed_18]
	mov	r9d, 19
	call	_ZN4core6result19Result$LT$T$C$E$GT$6expect17hea8876c5aa45f455E
.Ltmp360:
	jmp	.LBB45_11
.LBB45_11:
	.cv_loc	120 16 21 0
.Ltmp361:
	lea	rcx, [rbp + 16]
	call	_ZN65_$LT$alloc..string..String$u20$as$u20$core..ops..deref..Deref$GT$5deref17he60f38dbd839c6e6E
.Ltmp362:
	mov	qword ptr [rbp - 64], rdx
	mov	qword ptr [rbp - 56], rax
	jmp	.LBB45_12
.LBB45_12:
.Ltmp363:
	mov	rdx, qword ptr [rbp - 64]
	mov	rcx, qword ptr [rbp - 56]
	call	_ZN4core3str21_$LT$impl$u20$str$GT$5chars17h567eb88f4ce0d003E
.Ltmp364:
	mov	qword ptr [rbp - 80], rdx
	mov	qword ptr [rbp - 72], rax
	jmp	.LBB45_13
.LBB45_13:
	mov	rax, qword ptr [rbp - 80]
	mov	rcx, qword ptr [rbp - 72]
	mov	qword ptr [rbp + 72], rcx
	mov	qword ptr [rbp + 80], rax
.Ltmp365:
	lea	rcx, [rbp + 72]
	call	_ZN81_$LT$core..str..iter..Chars$u20$as$u20$core..iter..traits..iterator..Iterator$GT$4next17he62bc1674c101e7eE
.Ltmp366:
	mov	dword ptr [rbp - 84], eax
	jmp	.LBB45_14
.LBB45_14:
.Ltmp367:
	mov	ecx, dword ptr [rbp - 84]
	xor	edx, edx
	call	_ZN4core6option15Option$LT$T$GT$9unwrap_or17h6a18bb01978a3c41E
.Ltmp368:
	mov	dword ptr [rbp - 88], eax
	jmp	.LBB45_15
.LBB45_15:
	mov	eax, dword ptr [rbp - 88]
	mov	eax, eax
	mov	qword ptr [rbp + 64], rax
	.cv_loc	120 16 22 0
	cmp	qword ptr [rbp + 64], 110
	je	.LBB45_17
	.cv_loc	120 16 23 0
	cmp	qword ptr [rbp + 64], 113
	je	.LBB45_19
	jmp	.LBB45_18
.LBB45_17:
	.cv_loc	120 16 22 0
.Ltmp369:
.Ltmp377:
	call	_ZN6iferoo10handle_new17hce0de8e2f27d7e5cE
.Ltmp370:
	jmp	.LBB45_21
.Ltmp378:
.LBB45_18:
	.cv_loc	120 16 23 0
	cmp	qword ptr [rbp + 64], 99
	jne	.LBB45_20
.LBB45_19:
	jmp	.LBB45_20
.LBB45_20:
	.cv_loc	120 16 27 0
.Ltmp371:
	lea	rcx, [rbp + 16]
	call	_ZN5alloc6string6String5clear17he25ca9368ce252b3E
.Ltmp372:
	jmp	.LBB45_22
.LBB45_21:
.Ltmp379:
	.cv_loc	120 16 22 0
	jmp	.LBB45_20
.Ltmp380:
.LBB45_22:
	.cv_loc	120 16 27 0
	jmp	.LBB45_1
.Ltmp381:
	.seh_handlerdata
	.long	($cppxdata$_ZN6iferoo4main17hf696bac775226e66E)@IMGREL
	.section	.text,"xr",one_only,_ZN6iferoo4main17hf696bac775226e66E
	.seh_endproc
	.def	"?dtor$2@?0?_ZN6iferoo4main17hf696bac775226e66E@4HA";
	.scl	3;
	.type	32;
	.endef
	.p2align	4, 0x90
"?dtor$2@?0?_ZN6iferoo4main17hf696bac775226e66E@4HA":
.seh_proc "?dtor$2@?0?_ZN6iferoo4main17hf696bac775226e66E@4HA"
.LBB45_2:
	mov	qword ptr [rsp + 16], rdx
	push	rbp
	.seh_pushreg rbp
	sub	rsp, 48
	.seh_stackalloc 48
	lea	rbp, [rdx + 128]
	.seh_endprologue
	lea	rcx, [rbp + 16]
	.cv_loc	120 16 29 0
	call	_ZN4core3ptr42drop_in_place$LT$alloc..string..String$GT$17h3b601064cce962e2E
	.cv_loc	120 16 15 0
	nop
	add	rsp, 48
	pop	rbp
	ret
.Ltmp382:
.Lfunc_end45:
	.seh_handlerdata
	.section	.text,"xr",one_only,_ZN6iferoo4main17hf696bac775226e66E
	.seh_endproc
	.section	.xdata,"dr",associative,_ZN6iferoo4main17hf696bac775226e66E
	.p2align	2, 0x0
$cppxdata$_ZN6iferoo4main17hf696bac775226e66E:
	.long	429065506
	.long	1
	.long	($stateUnwindMap$_ZN6iferoo4main17hf696bac775226e66E)@IMGREL
	.long	0
	.long	0
	.long	5
	.long	($ip2state$_ZN6iferoo4main17hf696bac775226e66E)@IMGREL
	.long	216
	.long	0
	.long	1
$stateUnwindMap$_ZN6iferoo4main17hf696bac775226e66E:
	.long	-1
	.long	"?dtor$2@?0?_ZN6iferoo4main17hf696bac775226e66E@4HA"@IMGREL
$ip2state$_ZN6iferoo4main17hf696bac775226e66E:
	.long	.Lfunc_begin45@IMGREL
	.long	-1
	.long	.Ltmp347@IMGREL+1
	.long	0
	.long	.Ltmp354@IMGREL+1
	.long	-1
	.long	.Ltmp355@IMGREL+1
	.long	0
	.long	.Ltmp372@IMGREL+1
	.long	-1
	.section	.text,"xr",one_only,_ZN6iferoo4main17hf696bac775226e66E

	.def	main;
	.scl	2;
	.type	32;
	.endef
	.section	.text,"xr",one_only,main
	.globl	main
	.p2align	4, 0x90
main:
.Lfunc_begin46:
.seh_proc main
	sub	rsp, 40
	.seh_stackalloc 40
	.seh_endprologue
	mov	r8, rdx
	movsxd	rdx, ecx
	lea	rcx, [rip + _ZN6iferoo4main17hf696bac775226e66E]
	xor	r9d, r9d
	call	_ZN3std2rt10lang_start17h437e3e875e5d5fc9E
	nop
	add	rsp, 40
	ret
.Lfunc_end46:
	.seh_endproc

	.section	.rdata,"dr",one_only,__unnamed_1
__unnamed_1:
	.ascii	"internal error: entered unreachable code"

	.section	.rdata,"dr",one_only,__unnamed_19
__unnamed_19:
	.ascii	"/rustc/e9e6e2e444c30c23a9c878a88fbc3978c2acad95\\library\\std\\src\\io\\error\\repr_bitpacked.rs"

	.section	.rdata,"dr",one_only,__unnamed_2
	.p2align	3, 0x0
__unnamed_2:
	.quad	__unnamed_19
	.asciz	"Z\000\000\000\000\000\000\000\034\001\000\000\r\000\000"

	.section	.rdata,"dr",one_only,__unnamed_3
	.p2align	3, 0x0
__unnamed_3:
	.asciz	"\000\000\000\000\000\000\000\000\b\000\000\000\000\000\000\000\b\000\000\000\000\000\000"
	.quad	_ZN4core3ops8function6FnOnce40call_once$u7b$$u7b$vtable.shim$u7d$$u7d$17h57f020d0c84a10cbE
	.quad	_ZN3std2rt10lang_start28_$u7b$$u7b$closure$u7d$$u7d$17h6b5338a7c0b99f7eE
	.quad	_ZN3std2rt10lang_start28_$u7b$$u7b$closure$u7d$$u7d$17h6b5338a7c0b99f7eE

	.section	.rdata,"dr",one_only,__unnamed_4
	.p2align	3, 0x0
__unnamed_4:
	.zero	8
	.zero	8

	.section	.rdata,"dr",one_only,__unnamed_5
__unnamed_5:
	.ascii	"unsafe precondition(s) violated: usize::unchecked_mul cannot overflow"

	.section	.rdata,"dr",one_only,__unnamed_6
__unnamed_6:
	.ascii	"unsafe precondition(s) violated: NonNull::new_unchecked requires that the pointer is non-null"

	.section	.rdata,"dr",one_only,__unnamed_7
	.p2align	2, 0x0
__unnamed_7:
	.zero	4
	.zero	4

	.section	.rdata,"dr",one_only,__unnamed_8
__unnamed_8:
	.ascii	"unsafe precondition(s) violated: invalid value for `char`"

	.section	.rdata,"dr",one_only,__unnamed_9
__unnamed_9:
	.ascii	"unsafe precondition(s) violated: hint::unreachable_unchecked must never be reached"

	.section	.rdata,"dr",one_only,__unnamed_20
__unnamed_20:
	.ascii	"/rustc/e9e6e2e444c30c23a9c878a88fbc3978c2acad95\\library\\core\\src\\ub_checks.rs"

	.section	.rdata,"dr",one_only,__unnamed_13
	.p2align	3, 0x0
__unnamed_13:
	.quad	__unnamed_20
	.asciz	"M\000\000\000\000\000\000\000|\000\000\0006\000\000"

	.section	.rdata,"dr",one_only,__unnamed_12
__unnamed_12:
	.ascii	"unsafe precondition(s) violated: slice::from_raw_parts requires the pointer to be aligned and non-null, and the total size of the slice not to exceed `isize::MAX`"

	.section	.rdata,"dr",one_only,__unnamed_21
__unnamed_21:
	.ascii	"is_aligned_to: align is not a power-of-two"

	.section	.rdata,"dr",one_only,__unnamed_10
	.p2align	3, 0x0
__unnamed_10:
	.quad	__unnamed_21
	.asciz	"*\000\000\000\000\000\000"

	.section	.rdata,"dr",one_only,__unnamed_22
__unnamed_22:
	.ascii	"/rustc/e9e6e2e444c30c23a9c878a88fbc3978c2acad95\\library\\core\\src\\ptr\\const_ptr.rs"

	.section	.rdata,"dr",one_only,__unnamed_11
	.p2align	3, 0x0
__unnamed_11:
	.quad	__unnamed_22
	.asciz	"Q\000\000\000\000\000\000\000\214\006\000\000\r\000\000"

	.section	.rdata,"dr",one_only,__unnamed_14
__unnamed_14:
	.ascii	"unsafe precondition(s) violated: slice::from_raw_parts_mut requires the pointer to be aligned and non-null, and the total size of the slice not to exceed `isize::MAX`"

	.section	.rdata,"dr",one_only,__unnamed_15
	.p2align	3, 0x0
__unnamed_15:
	.quad	_ZN4core3ptr42drop_in_place$LT$std..io..error..Error$GT$17hfb47334e57d1dc30E
	.asciz	"\b\000\000\000\000\000\000\000\b\000\000\000\000\000\000"
	.quad	_ZN58_$LT$std..io..error..Error$u20$as$u20$core..fmt..Debug$GT$3fmt17hcfb63dba216ff853E

	.section	.rdata,"dr",one_only,__unnamed_23
__unnamed_23:
	.ascii	"You selected new!\n"

	.section	.rdata,"dr",one_only,__unnamed_16
	.p2align	3, 0x0
__unnamed_16:
	.quad	__unnamed_23
	.asciz	"\022\000\000\000\000\000\000"

	.section	.rdata,"dr",one_only,__unnamed_24
__unnamed_24:
	.ascii	"src/main.rs"

	.section	.rdata,"dr",one_only,__unnamed_25
	.p2align	3, 0x0
__unnamed_25:
	.quad	__unnamed_24
	.asciz	"\013\000\000\000\000\000\000\000\022\000\000\000C\000\000"

	.section	.rdata,"dr",one_only,__unnamed_18
__unnamed_18:
	.ascii	"Failed to read line"

	.section	.rdata,"dr",one_only,__unnamed_17
	.p2align	3, 0x0
__unnamed_17:
	.quad	__unnamed_24
	.asciz	"\013\000\000\000\000\000\000\000\023\000\000\0000\000\000"

	.section	.rdata,"dr",one_only,__unnamed_26
	.p2align	3, 0x0
__unnamed_26:
	.quad	__unnamed_24
	.asciz	"\013\000\000\000\000\000\000\000\026\000\000\000\027\000\000"

	.section	.rdata,"dr",one_only,__unnamed_27
	.p2align	3, 0x0
__unnamed_27:
	.quad	__unnamed_24
	.asciz	"\013\000\000\000\000\000\000\000\027\000\000\000\027\000\000"

	.section	.rdata,"dr",one_only,__unnamed_28
	.p2align	3, 0x0
__unnamed_28:
	.quad	__unnamed_24
	.asciz	"\013\000\000\000\000\000\000\000\027\000\000\0008\000\000"
